# SymbolsHelper-Confirmed: 5.212.0~alpha2 alpha amd64 arm64 armel armhf hppa hurd-i386 i386 kfreebsd-amd64 kfreebsd-i386 mips mips64el mipsel powerpc powerpcspe ppc64 ppc64el s390x sh4 x32
libQt5WebKit.so.5 libqt5webkit5 #MINVER#
 WKAccessibilityEnableEnhancedAccessibility@Base 5.212.0~alpha2
 WKAccessibilityEnhancedAccessibilityEnabled@Base 5.212.0~alpha2
 WKAccessibilityFocusedObject@Base 5.0.2
 WKAccessibilityRootObject@Base 5.0.2
 WKApplicationCacheManagerDeleteAllEntries@Base 5.212.0~alpha2
 WKApplicationCacheManagerDeleteEntriesForOrigin@Base 5.212.0~alpha2
 WKApplicationCacheManagerGetApplicationCacheOrigins@Base 5.212.0~alpha2
 WKApplicationCacheManagerGetTypeID@Base 5.212.0~alpha2
 WKArrayAppendItem@Base 5.0.2
 WKArrayCreate@Base 5.0.2
 WKArrayCreateAdoptingValues@Base 5.0.2
 WKArrayGetItemAtIndex@Base 5.0.2
 WKArrayGetSize@Base 5.0.2
 WKArrayGetTypeID@Base 5.0.2
 WKArrayIsMutable@Base 5.0.2
 WKArrayRemoveItemAtIndex@Base 5.0.2
 WKAuthenticationChallengeGetDecisionListener@Base 5.0.2
 WKAuthenticationChallengeGetPreviousFailureCount@Base 5.0.2
 WKAuthenticationChallengeGetProposedCredential@Base 5.0.2
 WKAuthenticationChallengeGetProtectionSpace@Base 5.0.2
 WKAuthenticationChallengeGetTypeID@Base 5.0.2
 WKAuthenticationDecisionListenerCancel@Base 5.0.2
 WKAuthenticationDecisionListenerGetTypeID@Base 5.0.2
 WKAuthenticationDecisionListenerUseCredential@Base 5.0.2
 WKBackForwardListClear@Base 5.212.0~alpha2
 WKBackForwardListCopyBackListWithLimit@Base 5.0.2
 WKBackForwardListCopyForwardListWithLimit@Base 5.0.2
 WKBackForwardListGetBackItem@Base 5.0.2
 WKBackForwardListGetBackListCount@Base 5.0.2
 WKBackForwardListGetCurrentItem@Base 5.0.2
 WKBackForwardListGetForwardItem@Base 5.0.2
 WKBackForwardListGetForwardListCount@Base 5.0.2
 WKBackForwardListGetItemAtIndex@Base 5.0.2
 WKBackForwardListGetTypeID@Base 5.0.2
 WKBackForwardListItemCopyOriginalURL@Base 5.0.2
 WKBackForwardListItemCopyTitle@Base 5.0.2
 WKBackForwardListItemCopyURL@Base 5.0.2
 WKBackForwardListItemGetTypeID@Base 5.0.2
 WKBatteryManagerGetTypeID@Base 5.0.2
 WKBatteryManagerProviderDidChangeBatteryStatus@Base 5.0.2
 WKBatteryManagerProviderUpdateBatteryStatus@Base 5.0.2
 WKBatteryManagerSetProvider@Base 5.0.2
 WKBatteryStatusCreate@Base 5.0.2
 WKBatteryStatusGetTypeID@Base 5.0.2
 WKBooleanCreate@Base 5.0.2
 WKBooleanGetTypeID@Base 5.0.2
 WKBooleanGetValue@Base 5.0.2
 WKBundleAddOriginAccessWhitelistEntry@Base 5.0.2
 WKBundleAddUserScript@Base 5.0.2
 WKBundleAddUserStyleSheet@Base 5.0.2
 WKBundleBackForwardListClear@Base 5.0.2
 WKBundleBackForwardListCopyItemAtIndex@Base 5.0.2
 WKBundleBackForwardListGetBackListCount@Base 5.0.2
 WKBundleBackForwardListGetForwardListCount@Base 5.0.2
 WKBundleBackForwardListGetTypeID@Base 5.0.2
 WKBundleBackForwardListItemCopyChildren@Base 5.0.2
 WKBundleBackForwardListItemCopyOriginalURL@Base 5.0.2
 WKBundleBackForwardListItemCopyTarget@Base 5.0.2
 WKBundleBackForwardListItemCopyTitle@Base 5.0.2
 WKBundleBackForwardListItemCopyURL@Base 5.0.2
 WKBundleBackForwardListItemGetTypeID@Base 5.0.2
 WKBundleBackForwardListItemHasCachedPageExpired@Base 5.2.0
 WKBundleBackForwardListItemIsInPageCache@Base 5.0.2
 WKBundleBackForwardListItemIsSame@Base 5.0.2
 WKBundleBackForwardListItemIsTargetItem@Base 5.0.2
 WKBundleClearAllDatabases@Base 5.0.2
 WKBundleCreateWKDataFromUInt8Array@Base 5.2.0
 WKBundleDOMWindowExtensionCreate@Base 5.0.2
 WKBundleDOMWindowExtensionGetFrame@Base 5.0.2
 WKBundleDOMWindowExtensionGetScriptWorld@Base 5.0.2
 WKBundleDOMWindowExtensionGetTypeID@Base 5.0.2
 WKBundleFrameAllowsFollowingLink@Base 5.0.2
 WKBundleFrameCallShouldCloseOnWebView@Base 5.0.2
 WKBundleFrameClearOpener@Base 5.0.2
 WKBundleFrameContainsAnyFormControls@Base 5.2.0
 WKBundleFrameContainsAnyFormElements@Base 5.0.2
 WKBundleFrameCopyChildFrames@Base 5.0.2
 WKBundleFrameCopyCounterValue@Base 5.0.2
 WKBundleFrameCopyInnerText@Base 5.0.2
 WKBundleFrameCopyLayerTreeAsText@Base 5.0.2
 WKBundleFrameCopyMIMETypeForResourceWithURL@Base 5.0.2
 WKBundleFrameCopyName@Base 5.0.2
 WKBundleFrameCopyProvisionalURL@Base 5.0.2
 WKBundleFrameCopySecurityOrigin@Base 5.0.2
 WKBundleFrameCopySuggestedFilenameForResourceWithURL@Base 5.0.2
 WKBundleFrameCopyURL@Base 5.0.2
 WKBundleFrameCopyWebArchive@Base 5.0.2
 WKBundleFrameCopyWebArchiveFilteringSubframes@Base 5.0.2
 WKBundleFrameCreateHitTestResult@Base 5.0.2
 WKBundleFrameFocus@Base 5.212.0~alpha2
 WKBundleFrameForJavaScriptContext@Base 5.0.2
 WKBundleFrameGetContentBounds@Base 5.0.2
 WKBundleFrameGetDocumentBackgroundColor@Base 5.0.2
 WKBundleFrameGetFrameLoadState@Base 5.0.2
 WKBundleFrameGetJavaScriptContext@Base 5.0.2
 WKBundleFrameGetJavaScriptContextForWorld@Base 5.0.2
 WKBundleFrameGetJavaScriptWrapperForFileForWorld@Base 5.212.0~alpha2
 WKBundleFrameGetJavaScriptWrapperForNodeForWorld@Base 5.0.2
 WKBundleFrameGetJavaScriptWrapperForRangeForWorld@Base 5.0.2
 WKBundleFrameGetPage@Base 5.0.2
 WKBundleFrameGetParentFrame@Base 5.0.2
 WKBundleFrameGetPendingUnloadCount@Base 5.0.2
 WKBundleFrameGetScrollOffset@Base 5.0.2
 WKBundleFrameGetTypeID@Base 5.0.2
 WKBundleFrameGetVisibleContentBounds@Base 5.0.2
 WKBundleFrameGetVisibleContentBoundsExcludingScrollbars@Base 5.0.2
 WKBundleFrameHandlesPageScaleGesture@Base 5.0.2
 WKBundleFrameHasHorizontalScrollbar@Base 5.0.2
 WKBundleFrameHasVerticalScrollbar@Base 5.0.2
 WKBundleFrameIsMainFrame@Base 5.0.2
 WKBundleFrameSetAccessibleName@Base 5.212.0~alpha2
 WKBundleFrameSetTextDirection@Base 5.0.2
 WKBundleFrameStopLoading@Base 5.0.2
 WKBundleGarbageCollectJavaScriptObjects@Base 5.0.2
 WKBundleGarbageCollectJavaScriptObjectsOnAlternateThreadForDebugging@Base 5.0.2
 WKBundleGetApplicationConnection@Base 5.0.2
 WKBundleGetJavaScriptObjectsCount@Base 5.0.2
 WKBundleGetTypeID@Base 5.0.2
 WKBundleGetWebNotificationID@Base 5.0.2
 WKBundleHitTestResultCopyAbsoluteImageURL@Base 5.0.2
 WKBundleHitTestResultCopyAbsoluteLinkURL@Base 5.0.2
 WKBundleHitTestResultCopyAbsoluteMediaURL@Base 5.0.2
 WKBundleHitTestResultCopyAbsolutePDFURL@Base 5.0.2
 WKBundleHitTestResultCopyLinkLabel@Base 5.0.2
 WKBundleHitTestResultCopyLinkTitle@Base 5.0.2
 WKBundleHitTestResultCopyNodeHandle@Base 5.0.2
 WKBundleHitTestResultCopyURLElementHandle@Base 5.212.0~alpha2
 WKBundleHitTestResultGetFrame@Base 5.0.2
 WKBundleHitTestResultGetImageRect@Base 5.0.2
 WKBundleHitTestResultGetIsSelected@Base 5.0.2
 WKBundleHitTestResultGetMediaType@Base 5.2.0
 WKBundleHitTestResultGetTargetFrame@Base 5.0.2
 WKBundleHitTestResultGetTypeID@Base 5.0.2
 WKBundleHitTestResultIsDownloadableMedia@Base 5.212.0~alpha2
 WKBundleHitTestResultMediaHasAudio@Base 5.2.0
 WKBundleHitTestResultMediaIsInFullscreen@Base 5.2.0
 WKBundleInspectorClose@Base 5.0.2
 WKBundleInspectorEvaluateScriptForTest@Base 5.0.2
 WKBundleInspectorGetTypeID@Base 5.0.2
 WKBundleInspectorSetPageProfilingEnabled@Base 5.0.2
 WKBundleInspectorShow@Base 5.0.2
 WKBundleIsPageBoxVisible@Base 5.0.2
 WKBundleIsProcessingUserGesture@Base 5.0.2
 WKBundleNavigationActionCopyFormElement@Base 5.0.2
 WKBundleNavigationActionCopyHitTestResult@Base 5.0.2
 WKBundleNavigationActionGetEventModifiers@Base 5.0.2
 WKBundleNavigationActionGetEventMouseButton@Base 5.0.2
 WKBundleNavigationActionGetNavigationType@Base 5.0.2
 WKBundleNavigationActionGetShouldOpenExternalURLs@Base 5.212.0~alpha2
 WKBundleNavigationActionGetShouldTryAppLinks@Base 5.212.0~alpha2
 WKBundleNavigationActionGetTypeID@Base 5.0.2
 WKBundleNodeHandleCopyDocument@Base 5.0.2
 WKBundleNodeHandleCopyDocumentFrame@Base 5.0.2
 WKBundleNodeHandleCopyHTMLFrameElementContentFrame@Base 5.0.2
 WKBundleNodeHandleCopyHTMLIFrameElementContentFrame@Base 5.0.2
 WKBundleNodeHandleCopyHTMLTableCellElementCellAbove@Base 5.0.2
 WKBundleNodeHandleCopySnapshotWithOptions@Base 5.2.0
 WKBundleNodeHandleCopyVisibleRange@Base 5.212.0~alpha2
 WKBundleNodeHandleCreate@Base 5.0.2
 WKBundleNodeHandleGetElementBounds@Base 5.0.2
 WKBundleNodeHandleGetHTMLInputElementAutoFillButtonBounds@Base 5.212.0~alpha2
 WKBundleNodeHandleGetHTMLInputElementAutoFillButtonEnabled@Base 5.212.0~alpha2
 WKBundleNodeHandleGetHTMLInputElementAutoFilled@Base 5.212.0~alpha2
 WKBundleNodeHandleGetHTMLInputElementAutofilled@Base 5.0.2
 WKBundleNodeHandleGetHTMLInputElementLastChangeWasUserEdit@Base 5.0.2
 WKBundleNodeHandleGetHTMLTextAreaElementLastChangeWasUserEdit@Base 5.0.2
 WKBundleNodeHandleGetRenderRect@Base 5.0.2
 WKBundleNodeHandleGetTypeID@Base 5.0.2
 WKBundleNodeHandleSetHTMLInputElementAutoFillButtonEnabled@Base 5.212.0~alpha2
 WKBundleNodeHandleSetHTMLInputElementAutoFillButtonEnabledWithButtonType@Base 5.212.0~alpha2
 WKBundleNodeHandleSetHTMLInputElementAutoFilled@Base 5.212.0~alpha2
 WKBundleNodeHandleSetHTMLInputElementAutofilled@Base 5.0.2
 WKBundleNodeHandleSetHTMLInputElementValueForUser@Base 5.0.2
 WKBundleNumberOfPages@Base 5.0.2
 WKBundleOverrideBoolPreferenceForTestRunner@Base 5.0.2
 WKBundlePageAddUserScript@Base 5.212.0~alpha2
 WKBundlePageAddUserStyleSheet@Base 5.212.0~alpha2
 WKBundlePageCanHandleRequest@Base 5.0.2
 WKBundlePageCanShowMIMEType@Base 5.0.2
 WKBundlePageClearApplicationCache@Base 5.212.0~alpha2
 WKBundlePageClearApplicationCacheForOrigin@Base 5.212.0~alpha2
 WKBundlePageClearMainFrameName@Base 5.0.2
 WKBundlePageClickMenuItem@Base 5.212.0~alpha2
 WKBundlePageClose@Base 5.0.2
 WKBundlePageConfirmComposition@Base 5.0.2
 WKBundlePageConfirmCompositionWithText@Base 5.0.2
 WKBundlePageCopyContextMenuAtPointInWindow@Base 5.2.0
 WKBundlePageCopyContextMenuItems@Base 5.212.0~alpha2
 WKBundlePageCopyGroupIdentifier@Base 5.212.0~alpha2
 WKBundlePageCopyOriginsWithApplicationCache@Base 5.212.0~alpha2
 WKBundlePageCopyRenderLayerTree@Base 5.0.2
 WKBundlePageCopyRenderTree@Base 5.0.2
 WKBundlePageCopyRenderTreeExternalRepresentation@Base 5.0.2
 WKBundlePageCopyRenderTreeExternalRepresentationForPrinting@Base 5.2.0
 WKBundlePageCopyTrackedRepaintRects@Base 5.0.2
 WKBundlePageCreateScaledSnapshotInDocumentCoordinates@Base 5.0.2
 WKBundlePageCreateSnapshotInDocumentCoordinates@Base 5.0.2
 WKBundlePageCreateSnapshotInViewCoordinates@Base 5.0.2
 WKBundlePageCreateSnapshotWithOptions@Base 5.0.2
 WKBundlePageDidEnterFullScreen@Base 5.0.2
 WKBundlePageDidExitFullScreen@Base 5.0.2
 WKBundlePageExecuteEditingCommand@Base 5.0.2
 WKBundlePageExtendIncrementalRenderingSuppression@Base 5.2.0
 WKBundlePageFindString@Base 5.0.2
 WKBundlePageForceRepaint@Base 5.0.2
 WKBundlePageGetAppCacheUsageForOrigin@Base 5.212.0~alpha2
 WKBundlePageGetBackForwardList@Base 5.0.2
 WKBundlePageGetBackingScaleFactor@Base 5.0.2
 WKBundlePageGetInspector@Base 5.0.2
 WKBundlePageGetMainFrame@Base 5.0.2
 WKBundlePageGetPageGroup@Base 5.0.2
 WKBundlePageGetPageZoomFactor@Base 5.0.2
 WKBundlePageGetRenderTreeSize@Base 5.0.2
 WKBundlePageGetTextZoomFactor@Base 5.0.2
 WKBundlePageGetTypeID@Base 5.0.2
 WKBundlePageGroupCopyIdentifier@Base 5.0.2
 WKBundlePageGroupGetTypeID@Base 5.0.2
 WKBundlePageHasComposition@Base 5.0.2
 WKBundlePageHasLocalDataForURL@Base 5.0.2
 WKBundlePageInstallPageOverlay@Base 5.0.2
 WKBundlePageInstallPageOverlayWithAnimation@Base 5.2.0
 WKBundlePageIsEditingCommandEnabled@Base 5.0.2
 WKBundlePageIsTrackingRepaints@Base 5.0.2
 WKBundlePageIsUsingEphemeralSession@Base 5.212.0~alpha2
 WKBundlePageListenForLayoutMilestones@Base 5.0.2
 WKBundlePageNumberForElementById@Base 5.0.2
 WKBundlePageOverlayClear@Base 5.212.0~alpha2
 WKBundlePageOverlayCreate@Base 5.0.2
 WKBundlePageOverlayFractionFadedIn@Base 5.0.2
 WKBundlePageOverlayGetTypeID@Base 5.0.2
 WKBundlePageOverlaySetAccessibilityClient@Base 5.212.0~alpha2
 WKBundlePageOverlaySetNeedsDisplay@Base 5.0.2
 WKBundlePagePostMessage@Base 5.212.0~alpha2
 WKBundlePagePostSynchronousMessageForTesting@Base 5.212.0~alpha2
 WKBundlePageRegisterScrollOperationCompletionCallback@Base 5.212.0~alpha2
 WKBundlePageRemoveAllUserContent@Base 5.212.0~alpha2
 WKBundlePageResetApplicationCacheOriginQuota@Base 5.212.0~alpha2
 WKBundlePageResetTrackedRepaints@Base 5.0.2
 WKBundlePageSetAppCacheMaximumSize@Base 5.212.0~alpha2
 WKBundlePageSetApplicationCacheOriginQuota@Base 5.212.0~alpha2
 WKBundlePageSetBottomOverhangImage@Base 5.2.0
 WKBundlePageSetComposition@Base 5.0.2
 WKBundlePageSetContextMenuClient@Base 5.0.2
 WKBundlePageSetDefersLoading@Base 5.0.2
 WKBundlePageSetDiagnosticLoggingClient@Base 5.0.2
 WKBundlePageSetEditorClient@Base 5.0.2
 WKBundlePageSetFooterBanner@Base 5.2.0
 WKBundlePageSetFormClient@Base 5.0.2
 WKBundlePageSetFullScreenClient@Base 5.0.2
 WKBundlePageSetHeaderBanner@Base 5.2.0
 WKBundlePageSetPageLoaderClient@Base 5.0.2
 WKBundlePageSetPageZoomFactor@Base 5.0.2
 WKBundlePageSetPaintedObjectsCounterThreshold@Base 5.0.2
 WKBundlePageSetPolicyClient@Base 5.0.2
 WKBundlePageSetResourceLoadClient@Base 5.0.2
 WKBundlePageSetScaleAtOrigin@Base 5.0.2
 WKBundlePageSetTextZoomFactor@Base 5.0.2
 WKBundlePageSetTopOverhangImage@Base 5.2.0
 WKBundlePageSetTracksRepaints@Base 5.0.2
 WKBundlePageSetUIClient@Base 5.0.2
 WKBundlePageSimulateMouseDown@Base 5.0.2
 WKBundlePageSimulateMouseMotion@Base 5.0.2
 WKBundlePageSimulateMouseUp@Base 5.0.2
 WKBundlePageSizeAndMarginsInPixels@Base 5.0.2
 WKBundlePageStartMonitoringScrollOperations@Base 5.212.0~alpha2
 WKBundlePageStopExtendingIncrementalRenderingSuppression@Base 5.2.0
 WKBundlePageStopLoading@Base 5.0.2
 WKBundlePageUninstallPageOverlay@Base 5.0.2
 WKBundlePageUninstallPageOverlayWithAnimation@Base 5.2.0
 WKBundlePageWillEnterFullScreen@Base 5.0.2
 WKBundlePageWillExitFullScreen@Base 5.0.2
 WKBundlePostMessage@Base 5.0.2
 WKBundlePostSynchronousMessage@Base 5.0.2
 WKBundleRangeHandleCopySnapshotWithOptions@Base 5.212.0~alpha2
 WKBundleRangeHandleCreate@Base 5.212.0~alpha2
 WKBundleRangeHandleGetBoundingRectInWindowCoordinates@Base 5.212.0~alpha2
 WKBundleRangeHandleGetTypeID@Base 5.212.0~alpha2
 WKBundleRemoveAllUserContent@Base 5.0.2
 WKBundleRemoveAllWebNotificationPermissions@Base 5.0.2
 WKBundleRemoveOriginAccessWhitelistEntry@Base 5.0.2
 WKBundleRemoveUserScript@Base 5.0.2
 WKBundleRemoveUserScripts@Base 5.0.2
 WKBundleRemoveUserStyleSheet@Base 5.0.2
 WKBundleRemoveUserStyleSheets@Base 5.0.2
 WKBundleReportException@Base 5.0.2
 WKBundleResetOriginAccessWhitelists@Base 5.0.2
 WKBundleScriptWorldClearWrappers@Base 5.0.2
 WKBundleScriptWorldCreateWorld@Base 5.0.2
 WKBundleScriptWorldGetTypeID@Base 5.0.2
 WKBundleScriptWorldMakeAllShadowRootsOpen@Base 5.212.0~alpha2
 WKBundleScriptWorldNormalWorld@Base 5.0.2
 WKBundleSetAllowFileAccessFromFileURLs@Base 5.0.2
 WKBundleSetAllowUniversalAccessFromFileURLs@Base 5.0.2
 WKBundleSetAsynchronousSpellCheckingEnabled@Base 5.2.0
 WKBundleSetAuthorAndUserStylesEnabled@Base 5.0.2
 WKBundleSetClient@Base 5.0.2
 WKBundleSetDatabaseQuota@Base 5.0.2
 WKBundleSetFrameFlatteningEnabled@Base 5.0.2
 WKBundleSetJavaScriptCanAccessClipboard@Base 5.0.2
 WKBundleSetMinimumLogicalFontSize@Base 5.0.2
 WKBundleSetPluginsEnabled@Base 5.0.2
 WKBundleSetPopupBlockingEnabled@Base 5.0.2
 WKBundleSetPrivateBrowsingEnabled@Base 5.0.2
 WKBundleSetSpatialNavigationEnabled@Base 5.0.2
 WKBundleSetTabKeyCyclesThroughElements@Base 5.0.2
 WKBundleSetUserStyleSheetLocation@Base 5.0.2
 WKBundleSetWebNotificationPermission@Base 5.0.2
 WKCertificateInfoGetTypeID@Base 5.0.2
 WKConnectionGetTypeID@Base 5.0.2
 WKConnectionPostMessage@Base 5.0.2
 WKConnectionSetConnectionClient@Base 5.0.2
 WKContextAddVisitedLink@Base 5.0.2
 WKContextAllowSpecificHTTPSCertificateForHost@Base 5.2.0
 WKContextClearCachedCredentials@Base 5.212.0~alpha2
 WKContextClearVisitedLinks@Base 5.212.0~alpha2
 WKContextConfigurationCopyApplicationCacheDirectory@Base 5.212.0~alpha2
 WKContextConfigurationCopyDiskCacheDirectory@Base 5.212.0~alpha2
 WKContextConfigurationCopyIndexedDBDatabaseDirectory@Base 5.212.0~alpha2
 WKContextConfigurationCopyInjectedBundlePath@Base 5.212.0~alpha2
 WKContextConfigurationCopyLocalStorageDirectory@Base 5.212.0~alpha2
 WKContextConfigurationCopyMediaKeysStorageDirectory@Base 5.212.0~alpha2
 WKContextConfigurationCopyOverrideLanguages@Base 5.212.0~alpha2
 WKContextConfigurationCopyWebSQLDatabaseDirectory@Base 5.212.0~alpha2
 WKContextConfigurationCreate@Base 5.212.0~alpha2
 WKContextConfigurationFullySynchronousModeIsAllowedForTesting@Base 5.212.0~alpha2
 WKContextConfigurationSetApplicationCacheDirectory@Base 5.212.0~alpha2
 WKContextConfigurationSetDiskCacheDirectory@Base 5.212.0~alpha2
 WKContextConfigurationSetFullySynchronousModeIsAllowedForTesting@Base 5.212.0~alpha2
 WKContextConfigurationSetIndexedDBDatabaseDirectory@Base 5.212.0~alpha2
 WKContextConfigurationSetInjectedBundlePath@Base 5.212.0~alpha2
 WKContextConfigurationSetLocalStorageDirectory@Base 5.212.0~alpha2
 WKContextConfigurationSetMediaKeysStorageDirectory@Base 5.212.0~alpha2
 WKContextConfigurationSetOverrideLanguages@Base 5.212.0~alpha2
 WKContextConfigurationSetWebSQLDatabaseDirectory@Base 5.212.0~alpha2
 WKContextCopyPlugInAutoStartOriginHashes@Base 5.2.0
 WKContextCreate@Base 5.0.2
 WKContextCreateWithConfiguration@Base 5.212.0~alpha2
 WKContextCreateWithInjectedBundlePath@Base 5.0.2
 WKContextDisableProcessTermination@Base 5.0.2
 WKContextDownloadURLRequest@Base 5.0.2
 WKContextEnableProcessTermination@Base 5.0.2
 WKContextGarbageCollectJavaScriptObjects@Base 5.0.2
 WKContextGetApplicationCacheManager@Base 5.0.2
 WKContextGetBatteryManager@Base 5.0.2
 WKContextGetCacheModel@Base 5.0.2
 WKContextGetCookieManager@Base 5.0.2
 WKContextGetGeolocationManager@Base 5.0.2
 WKContextGetGlobalStatistics@Base 5.0.2
 WKContextGetIconDatabase@Base 5.0.2
 WKContextGetKeyValueStorageManager@Base 5.0.2
 WKContextGetMaximumNumberOfProcesses@Base 5.2.0
 WKContextGetMediaSessionFocusManager@Base 5.212.0~alpha2
 WKContextGetNotificationManager@Base 5.0.2
 WKContextGetPluginSiteDataManager@Base 5.0.2
 WKContextGetProcessModel@Base 5.0.2
 WKContextGetResourceCacheManager@Base 5.0.2
 WKContextGetStatistics@Base 5.0.2
 WKContextGetStatisticsWithOptions@Base 5.2.0
 WKContextGetTypeID@Base 5.0.2
 WKContextGetWebsiteDataStore@Base 5.212.0~alpha2
 WKContextMenuCopySubmenuItems@Base 5.0.2
 WKContextMenuItemCopyTitle@Base 5.0.2
 WKContextMenuItemCreateAsAction@Base 5.0.2
 WKContextMenuItemCreateAsCheckableAction@Base 5.0.2
 WKContextMenuItemCreateAsSubmenu@Base 5.0.2
 WKContextMenuItemGetChecked@Base 5.0.2
 WKContextMenuItemGetEnabled@Base 5.0.2
 WKContextMenuItemGetTag@Base 5.0.2
 WKContextMenuItemGetType@Base 5.0.2
 WKContextMenuItemGetTypeID@Base 5.0.2
 WKContextMenuItemGetUserData@Base 5.0.2
 WKContextMenuItemSeparatorItem@Base 5.0.2
 WKContextMenuItemSetUserData@Base 5.0.2
 WKContextPostMessageToInjectedBundle@Base 5.0.2
 WKContextRegisterURLSchemeAsBypassingContentSecurityPolicy@Base 5.212.0~alpha2
 WKContextRegisterURLSchemeAsCachePartitioned@Base 5.212.0~alpha2
 WKContextRegisterURLSchemeAsEmptyDocument@Base 5.0.2
 WKContextRegisterURLSchemeAsSecure@Base 5.0.2
 WKContextResumeDownload@Base 5.212.0~alpha2
 WKContextSetAdditionalPluginsDirectory@Base 5.0.2
 WKContextSetAlwaysUsesComplexTextCodePath@Base 5.0.2
 WKContextSetCacheModel@Base 5.0.2
 WKContextSetCanHandleHTTPSServerTrustEvaluation@Base 5.212.0~alpha2
 WKContextSetClient@Base 5.2.0
 WKContextSetConnectionClient@Base 5.0.2
 WKContextSetCookieStorageDirectory@Base 5.0.2
 WKContextSetDomainRelaxationForbiddenForURLScheme@Base 5.0.2
 WKContextSetDownloadClient@Base 5.0.2
 WKContextSetFontWhitelist@Base 5.212.0~alpha2
 WKContextSetHTTPPipeliningEnabled@Base 5.0.2
 WKContextSetHistoryClient@Base 5.0.2
 WKContextSetIconDatabasePath@Base 5.0.2
 WKContextSetInitializationUserDataForInjectedBundle@Base 5.0.2
 WKContextSetInjectedBundleClient@Base 5.0.2
 WKContextSetInvalidMessageFunction@Base 5.2.0
 WKContextSetJavaScriptGarbageCollectorTimerEnabled@Base 5.0.2
 WKContextSetMaximumNumberOfProcesses@Base 5.2.0
 WKContextSetMemoryCacheDisabled@Base 5.212.0~alpha2
 WKContextSetPlugInAutoStartOriginHashes@Base 5.2.0
 WKContextSetPlugInAutoStartOrigins@Base 5.2.0
 WKContextSetPlugInAutoStartOriginsFilteringOutEntriesAddedAfterTime@Base 5.212.0~alpha2
 WKContextSetProcessModel@Base 5.0.2
 WKContextSetShouldUseFontSmoothing@Base 5.0.2
 WKContextSetUsesNetworkProcess@Base 5.0.2
 WKContextStartMemorySampler@Base 5.0.2
 WKContextStopMemorySampler@Base 5.0.2
 WKContextUseTestingNetworkSession@Base 5.212.0~alpha2
 WKContextWarmInitialProcess@Base 5.0.2
 WKCookieManagerDeleteAllCookies@Base 5.212.0~alpha2
 WKCookieManagerDeleteAllCookiesModifiedAfterDate@Base 5.212.0~alpha2
 WKCookieManagerDeleteCookiesForHostname@Base 5.212.0~alpha2
 WKCookieManagerGetHTTPCookieAcceptPolicy@Base 5.212.0~alpha2
 WKCookieManagerGetHostnamesWithCookies@Base 5.212.0~alpha2
 WKCookieManagerGetTypeID@Base 5.212.0~alpha2
 WKCookieManagerSetClient@Base 5.212.0~alpha2
 WKCookieManagerSetHTTPCookieAcceptPolicy@Base 5.212.0~alpha2
 WKCookieManagerStartObservingCookieChanges@Base 5.212.0~alpha2
 WKCookieManagerStopObservingCookieChanges@Base 5.212.0~alpha2
 WKCredentialCopyUser@Base 5.0.2
 WKCredentialCreate@Base 5.0.2
 WKCredentialCreateWithCertificateInfo@Base 5.0.2
 WKCredentialGetTypeID@Base 5.0.2
 WKDataCreate@Base 5.2.0
 WKDataGetBytes@Base 5.2.0
 WKDataGetSize@Base 5.2.0
 WKDataGetTypeID@Base 5.2.0
 WKDictionaryAddItem@Base 5.0.2
 WKDictionaryCopyKeys@Base 5.0.2
 WKDictionaryCreate@Base 5.212.0~alpha2
 WKDictionaryGetItemForKey@Base 5.0.2
 WKDictionaryGetSize@Base 5.0.2
 WKDictionaryGetTypeID@Base 5.0.2
 WKDictionaryIsMutable@Base 5.0.2
 WKDictionaryRemoveItem@Base 5.0.2
 WKDictionarySetItem@Base 5.0.2
 WKDoubleCreate@Base 5.0.2
 WKDoubleGetTypeID@Base 5.0.2
 WKDoubleGetValue@Base 5.0.2
 WKDownloadCancel@Base 5.0.2
 WKDownloadCopyRequest@Base 5.0.2
 WKDownloadGetID@Base 5.2.0
 WKDownloadGetResumeData@Base 5.0.2
 WKDownloadGetTypeID@Base 5.0.2
 WKErrorCopyDomain@Base 5.0.2
 WKErrorCopyFailingURL@Base 5.0.2
 WKErrorCopyLocalizedDescription@Base 5.0.2
 WKErrorCopyWKErrorDomain@Base 5.0.2
 WKErrorGetErrorCode@Base 5.0.2
 WKErrorGetTypeID@Base 5.0.2
 WKFormSubmissionListenerContinue@Base 5.212.0~alpha2
 WKFormSubmissionListenerGetTypeID@Base 5.212.0~alpha2
 WKFrameCanProvideSource@Base 5.0.2
 WKFrameCanShowMIMEType@Base 5.0.2
 WKFrameCopyMIMEType@Base 5.0.2
 WKFrameCopyProvisionalURL@Base 5.0.2
 WKFrameCopyTitle@Base 5.0.2
 WKFrameCopyURL@Base 5.0.2
 WKFrameCopyUnreachableURL@Base 5.0.2
 WKFrameCreateFrameInfo@Base 5.212.0~alpha2
 WKFrameGetCertificateInfo@Base 5.0.2
 WKFrameGetFrameLoadState@Base 5.0.2
 WKFrameGetMainResourceData@Base 5.0.2
 WKFrameGetPage@Base 5.0.2
 WKFrameGetResourceData@Base 5.0.2
 WKFrameGetTypeID@Base 5.0.2
 WKFrameGetWebArchive@Base 5.0.2
 WKFrameInfoGetTypeID@Base 5.212.0~alpha2
 WKFrameIsDisplayingMarkupDocument@Base 5.0.2
 WKFrameIsDisplayingStandaloneImageDocument@Base 5.0.2
 WKFrameIsFrameSet@Base 5.0.2
 WKFrameIsMainFrame@Base 5.0.2
 WKFramePolicyListenerDownload@Base 5.0.2
 WKFramePolicyListenerGetTypeID@Base 5.0.2
 WKFramePolicyListenerIgnore@Base 5.0.2
 WKFramePolicyListenerUse@Base 5.0.2
 WKFrameStopLoading@Base 5.0.2
 WKGeolocationManagerGetTypeID@Base 5.0.2
 WKGeolocationManagerProviderDidChangePosition@Base 5.0.2
 WKGeolocationManagerProviderDidFailToDeterminePosition@Base 5.0.2
 WKGeolocationManagerProviderDidFailToDeterminePositionWithErrorMessage@Base 5.0.2
 WKGeolocationManagerSetProvider@Base 5.0.2
 WKGeolocationPermissionRequestAllow@Base 5.0.2
 WKGeolocationPermissionRequestDeny@Base 5.0.2
 WKGeolocationPermissionRequestGetTypeID@Base 5.0.2
 WKGeolocationPositionCreate@Base 5.0.2
 WKGeolocationPositionCreate_b@Base 5.0.2
 WKGeolocationPositionGetTypeID@Base 5.0.2
 WKGetTypeID@Base 5.0.2
 WKGrammarDetailCopyGuesses@Base 5.0.2
 WKGrammarDetailCopyUserDescription@Base 5.0.2
 WKGrammarDetailCreate@Base 5.0.2
 WKGrammarDetailGetLength@Base 5.0.2
 WKGrammarDetailGetLocation@Base 5.0.2
 WKGrammarDetailGetTypeID@Base 5.0.2
 WKHitTestResultCopyAbsoluteImageURL@Base 5.0.2
 WKHitTestResultCopyAbsoluteLinkURL@Base 5.0.2
 WKHitTestResultCopyAbsoluteMediaURL@Base 5.0.2
 WKHitTestResultCopyAbsolutePDFURL@Base 5.0.2
 WKHitTestResultCopyLinkLabel@Base 5.0.2
 WKHitTestResultCopyLinkTitle@Base 5.0.2
 WKHitTestResultCopyLookupText@Base 5.212.0~alpha2
 WKHitTestResultGetElementBoundingBox@Base 5.212.0~alpha2
 WKHitTestResultGetTypeID@Base 5.0.2
 WKHitTestResultIsContentEditable@Base 5.0.2
 WKIconDatabaseCheckIntegrityBeforeOpening@Base 5.0.2
 WKIconDatabaseClose@Base 5.0.2
 WKIconDatabaseCopyIconDataForPageURL@Base 5.212.0~alpha2
 WKIconDatabaseCopyIconURLForPageURL@Base 5.212.0~alpha2
 WKIconDatabaseEnableDatabaseCleanup@Base 5.0.2
 WKIconDatabaseGetTypeID@Base 5.0.2
 WKIconDatabaseReleaseIconForURL@Base 5.0.2
 WKIconDatabaseRemoveAllIcons@Base 5.0.2
 WKIconDatabaseRetainIconForURL@Base 5.0.2
 WKIconDatabaseSetIconDataForIconURL@Base 5.212.0~alpha2
 WKIconDatabaseSetIconDatabaseClient@Base 5.0.2
 WKIconDatabaseSetIconURLForPageURL@Base 5.212.0~alpha2
 WKImageCreate@Base 5.0.2
 WKImageGetSize@Base 5.0.2
 WKImageGetTypeID@Base 5.0.2
 WKInspectorAttach@Base 5.0.2
 WKInspectorClose@Base 5.0.2
 WKInspectorConnect@Base 5.2.0
 WKInspectorDetach@Base 5.0.2
 WKInspectorGetPage@Base 5.0.2
 WKInspectorGetTypeID@Base 5.0.2
 WKInspectorHide@Base 5.2.0
 WKInspectorIsAttached@Base 5.0.2
 WKInspectorIsConnected@Base 5.2.0
 WKInspectorIsDebuggingJavaScript@Base 5.0.2
 WKInspectorIsFront@Base 5.0.2
 WKInspectorIsProfilingJavaScript@Base 5.0.2
 WKInspectorIsProfilingPage@Base 5.0.2
 WKInspectorIsVisible@Base 5.0.2
 WKInspectorShow@Base 5.0.2
 WKInspectorShowConsole@Base 5.0.2
 WKInspectorShowMainResourceForFrame@Base 5.0.2
 WKInspectorShowResources@Base 5.0.2
 WKInspectorToggleJavaScriptDebugging@Base 5.0.2
 WKInspectorToggleJavaScriptProfiling@Base 5.0.2
 WKInspectorTogglePageProfiling@Base 5.0.2
 WKKeyValueStorageManagerDeleteAllEntries@Base 5.212.0~alpha2
 WKKeyValueStorageManagerDeleteEntriesForOrigin@Base 5.212.0~alpha2
 WKKeyValueStorageManagerGetCreationTimeKey@Base 5.212.0~alpha2
 WKKeyValueStorageManagerGetKeyValueStorageOrigins@Base 5.212.0~alpha2
 WKKeyValueStorageManagerGetModificationTimeKey@Base 5.212.0~alpha2
 WKKeyValueStorageManagerGetOriginKey@Base 5.212.0~alpha2
 WKKeyValueStorageManagerGetStorageDetailsByOrigin@Base 5.212.0~alpha2
 WKKeyValueStorageManagerGetTypeID@Base 5.212.0~alpha2
 WKMediaSessionMetadataCopyAlbum@Base 5.212.0~alpha2
 WKMediaSessionMetadataCopyArtist@Base 5.212.0~alpha2
 WKMediaSessionMetadataCopyArtworkURL@Base 5.212.0~alpha2
 WKMediaSessionMetadataCopyTitle@Base 5.212.0~alpha2
 WKMediaSessionMetadataGetTypeID@Base 5.212.0~alpha2
 WKMutableArrayCreate@Base 5.0.2
 WKMutableDictionaryCreate@Base 5.0.2
 WKNavigationActionGetTypeID@Base 5.212.0~alpha2
 WKNavigationDataCopyNavigationDestinationURL@Base 5.2.0
 WKNavigationDataCopyOriginalRequest@Base 5.0.2
 WKNavigationDataCopyTitle@Base 5.0.2
 WKNavigationDataCopyURL@Base 5.0.2
 WKNavigationDataGetTypeID@Base 5.0.2
 WKNavigationGetTypeID@Base 5.212.0~alpha2
 WKNavigationResponseCanShowMIMEType@Base 5.212.0~alpha2
 WKNavigationResponseGetTypeID@Base 5.212.0~alpha2
 WKNotificationCopyBody@Base 5.0.2
 WKNotificationCopyDir@Base 5.0.2
 WKNotificationCopyIconURL@Base 5.0.2
 WKNotificationCopyLang@Base 5.0.2
 WKNotificationCopyTag@Base 5.0.2
 WKNotificationCopyTitle@Base 5.0.2
 WKNotificationGetID@Base 5.0.2
 WKNotificationGetSecurityOrigin@Base 5.0.2
 WKNotificationGetTypeID@Base 5.0.2
 WKNotificationManagerGetTypeID@Base 5.0.2
 WKNotificationManagerProviderDidClickNotification@Base 5.0.2
 WKNotificationManagerProviderDidCloseNotifications@Base 5.0.2
 WKNotificationManagerProviderDidRemoveNotificationPolicies@Base 5.0.2
 WKNotificationManagerProviderDidShowNotification@Base 5.0.2
 WKNotificationManagerProviderDidUpdateNotificationPolicy@Base 5.0.2
 WKNotificationManagerSetProvider@Base 5.0.2
 WKNotificationPermissionRequestAllow@Base 5.0.2
 WKNotificationPermissionRequestDeny@Base 5.0.2
 WKNotificationPermissionRequestGetTypeID@Base 5.0.2
 WKOpenPanelParametersCopyAcceptedMIMETypes@Base 5.0.2
 WKOpenPanelParametersCopyCapture@Base 5.0.2
 WKOpenPanelParametersCopySelectedFileNames@Base 5.2.0
 WKOpenPanelParametersGetAllowsMultipleFiles@Base 5.0.2
 WKOpenPanelParametersGetCaptureEnabled@Base 5.212.0~alpha2
 WKOpenPanelParametersGetTypeID@Base 5.0.2
 WKOpenPanelResultListenerCancel@Base 5.0.2
 WKOpenPanelResultListenerChooseFiles@Base 5.0.2
 WKOpenPanelResultListenerGetTypeID@Base 5.0.2
 WKPageAreScrollbarAnimationsSuppressed@Base 5.0.2
 WKPageBackgroundExtendsBeyondPage@Base 5.212.0~alpha2
 WKPageCallAfterNextPresentationUpdate@Base 5.212.0~alpha2
 WKPageCanDelete@Base 5.0.2
 WKPageCanGoBack@Base 5.0.2
 WKPageCanGoForward@Base 5.0.2
 WKPageCenterSelectionInVisibleArea@Base 5.0.2
 WKPageClearWheelEventTestTrigger@Base 5.212.0~alpha2
 WKPageClose@Base 5.0.2
 WKPageConfigurationCreate@Base 5.212.0~alpha2
 WKPageConfigurationGetContext@Base 5.212.0~alpha2
 WKPageConfigurationGetPageGroup@Base 5.212.0~alpha2
 WKPageConfigurationGetPreferences@Base 5.212.0~alpha2
 WKPageConfigurationGetRelatedPage@Base 5.212.0~alpha2
 WKPageConfigurationGetTypeID@Base 5.212.0~alpha2
 WKPageConfigurationGetUserContentController@Base 5.212.0~alpha2
 WKPageConfigurationGetWebsiteDataStore@Base 5.212.0~alpha2
 WKPageConfigurationSetContext@Base 5.212.0~alpha2
 WKPageConfigurationSetPageGroup@Base 5.212.0~alpha2
 WKPageConfigurationSetPreferences@Base 5.212.0~alpha2
 WKPageConfigurationSetRelatedPage@Base 5.212.0~alpha2
 WKPageConfigurationSetUserContentController@Base 5.212.0~alpha2
 WKPageConfigurationSetWebsiteDataStore@Base 5.212.0~alpha2
 WKPageCopyActiveURL@Base 5.0.2
 WKPageCopyApplicationNameForUserAgent@Base 5.0.2
 WKPageCopyCommittedURL@Base 5.0.2
 WKPageCopyCustomTextEncodingName@Base 5.0.2
 WKPageCopyCustomUserAgent@Base 5.0.2
 WKPageCopyPageConfiguration@Base 5.212.0~alpha2
 WKPageCopyPendingAPIRequestURL@Base 5.0.2
 WKPageCopyProvisionalURL@Base 5.0.2
 WKPageCopyRelatedPages@Base 5.0.2
 WKPageCopySessionState@Base 5.0.2
 WKPageCopyStandardUserAgentWithApplicationName@Base 5.0.2
 WKPageCopyTitle@Base 5.0.2
 WKPageCopyUserAgent@Base 5.0.2
 WKPageCountStringMatches@Base 5.0.2
 WKPageExecuteCommand@Base 5.0.2
 WKPageFindString@Base 5.0.2
 WKPageFindStringMatches@Base 5.2.0
 WKPageFixedLayoutSize@Base 5.0.2
 WKPageForceRepaint@Base 5.0.2
 WKPageGetAddsVisitedLinks@Base 5.212.0~alpha2
 WKPageGetAllowsRemoteInspection@Base 5.212.0~alpha2
 WKPageGetBackForwardList@Base 5.0.2
 WKPageGetBackingScaleFactor@Base 5.0.2
 WKPageGetBytecodeProfile@Base 5.212.0~alpha2
 WKPageGetContentsAsMHTMLData@Base 5.0.2
 WKPageGetContentsAsString@Base 5.0.2
 WKPageGetContext@Base 5.0.2
 WKPageGetEstimatedProgress@Base 5.0.2
 WKPageGetFocusedFrame@Base 5.0.2
 WKPageGetFrameSetLargestFrame@Base 5.0.2
 WKPageGetGapBetweenPages@Base 5.0.2
 WKPageGetImageForFindMatch@Base 5.2.0
 WKPageGetInspector@Base 5.0.2
 WKPageGetMainFrame@Base 5.0.2
 WKPageGetPageCount@Base 5.0.2
 WKPageGetPageGroup@Base 5.0.2
 WKPageGetPageLength@Base 5.0.2
 WKPageGetPageZoomFactor@Base 5.0.2
 WKPageGetPaginationBehavesLikeColumns@Base 5.0.2
 WKPageGetPaginationLineGridEnabled@Base 5.212.0~alpha2
 WKPageGetPaginationMode@Base 5.0.2
 WKPageGetRenderTreeSize@Base 5.0.2
 WKPageGetScaleFactor@Base 5.0.2
 WKPageGetScrollPinningBehavior@Base 5.2.0
 WKPageGetSelectionAsWebArchiveData@Base 5.2.0
 WKPageGetSessionBackForwardListItemValueType@Base 5.2.0
 WKPageGetSessionHistoryURLValueType@Base 5.0.2
 WKPageGetSourceForFrame@Base 5.0.2
 WKPageGetTextZoomFactor@Base 5.0.2
 WKPageGetTypeID@Base 5.0.2
 WKPageGetVibration@Base 5.0.2
 WKPageGoBack@Base 5.0.2
 WKPageGoForward@Base 5.0.2
 WKPageGoToBackForwardListItem@Base 5.0.2
 WKPageGroupAddUserContentFilter@Base 5.212.0~alpha2
 WKPageGroupAddUserScript@Base 5.0.2
 WKPageGroupAddUserStyleSheet@Base 5.0.2
 WKPageGroupCopyIdentifier@Base 5.0.2
 WKPageGroupCreateWithIdentifier@Base 5.0.2
 WKPageGroupGetPreferences@Base 5.0.2
 WKPageGroupGetTypeID@Base 5.0.2
 WKPageGroupRemoveAllUserContentFilters@Base 5.212.0~alpha2
 WKPageGroupRemoveAllUserScripts@Base 5.0.2
 WKPageGroupRemoveAllUserStyleSheets@Base 5.0.2
 WKPageGroupRemoveUserContentFilter@Base 5.212.0~alpha2
 WKPageGroupSetPreferences@Base 5.0.2
 WKPageHandleMediaEvent@Base 5.212.0~alpha2
 WKPageHasHorizontalScrollbar@Base 5.0.2
 WKPageHasMediaSessionWithActiveMediaElements@Base 5.212.0~alpha2
 WKPageHasSelectedRange@Base 5.0.2
 WKPageHasVerticalScrollbar@Base 5.0.2
 WKPageHideFindUI@Base 5.0.2
 WKPageHorizontalRubberBandingIsEnabled@Base 5.212.0~alpha2
 WKPageIsClosed@Base 5.0.2
 WKPageIsContentEditable@Base 5.0.2
 WKPageIsPinnedToBottomSide@Base 5.0.2
 WKPageIsPinnedToLeftSide@Base 5.0.2
 WKPageIsPinnedToRightSide@Base 5.0.2
 WKPageIsPinnedToTopSide@Base 5.0.2
 WKPageIsPlayingAudio@Base 5.212.0~alpha2
 WKPageIsWebProcessResponsive@Base 5.212.0~alpha2
 WKPageListenForLayoutMilestones@Base 5.0.2
 WKPageLoadAlternateHTMLString@Base 5.0.2
 WKPageLoadAlternateHTMLStringWithUserData@Base 5.2.0
 WKPageLoadData@Base 5.2.0
 WKPageLoadDataWithUserData@Base 5.2.0
 WKPageLoadFile@Base 5.2.0
 WKPageLoadFileWithUserData@Base 5.2.0
 WKPageLoadHTMLString@Base 5.0.2
 WKPageLoadHTMLStringWithUserData@Base 5.2.0
 WKPageLoadPlainTextString@Base 5.0.2
 WKPageLoadPlainTextStringWithUserData@Base 5.2.0
 WKPageLoadURL@Base 5.0.2
 WKPageLoadURLRequest@Base 5.0.2
 WKPageLoadURLRequestWithUserData@Base 5.2.0
 WKPageLoadURLWithShouldOpenExternalURLsPolicy@Base 5.212.0~alpha2
 WKPageLoadURLWithUserData@Base 5.2.0
 WKPageLoadWebArchiveData@Base 5.0.2
 WKPageLoadWebArchiveDataWithUserData@Base 5.2.0
 WKPagePostMessageToInjectedBundle@Base 5.0.2
 WKPageReload@Base 5.0.2
 WKPageReloadFromOrigin@Base 5.0.2
 WKPageReloadWithoutContentBlockers@Base 5.212.0~alpha2
 WKPageRenderTreeExternalRepresentation@Base 5.0.2
 WKPageRestoreFromSessionState@Base 5.0.2
 WKPageRubberBandsAtBottom@Base 5.2.0
 WKPageRubberBandsAtLeft@Base 5.212.0~alpha2
 WKPageRubberBandsAtRight@Base 5.212.0~alpha2
 WKPageRubberBandsAtTop@Base 5.2.0
 WKPageRunBeforeUnloadConfirmPanelResultListenerCall@Base 5.212.0~alpha2
 WKPageRunBeforeUnloadConfirmPanelResultListenerGetTypeID@Base 5.212.0~alpha2
 WKPageRunJavaScriptAlertResultListenerCall@Base 5.212.0~alpha2
 WKPageRunJavaScriptAlertResultListenerGetTypeID@Base 5.212.0~alpha2
 WKPageRunJavaScriptConfirmResultListenerCall@Base 5.212.0~alpha2
 WKPageRunJavaScriptConfirmResultListenerGetTypeID@Base 5.212.0~alpha2
 WKPageRunJavaScriptInMainFrame@Base 5.0.2
 WKPageRunJavaScriptPromptResultListenerCall@Base 5.212.0~alpha2
 WKPageRunJavaScriptPromptResultListenerGetTypeID@Base 5.212.0~alpha2
 WKPageSelectContextMenuItem@Base 5.2.0
 WKPageSelectFindMatch@Base 5.2.0
 WKPageSetAddsVisitedLinks@Base 5.212.0~alpha2
 WKPageSetAllowsRemoteInspection@Base 5.212.0~alpha2
 WKPageSetApplicationNameForUserAgent@Base 5.0.2
 WKPageSetBackgroundExtendsBeyondPage@Base 5.212.0~alpha2
 WKPageSetCustomBackingScaleFactor@Base 5.0.2
 WKPageSetCustomTextEncodingName@Base 5.0.2
 WKPageSetCustomUserAgent@Base 5.0.2
 WKPageSetEnableHorizontalRubberBanding@Base 5.212.0~alpha2
 WKPageSetEnableVerticalRubberBanding@Base 5.212.0~alpha2
 WKPageSetFixedLayoutSize@Base 5.0.2
 WKPageSetGapBetweenPages@Base 5.0.2
 WKPageSetMaintainsInactiveSelection@Base 5.0.2
 WKPageSetMayStartMediaWhenInWindow@Base 5.0.2
 WKPageSetMediaVolume@Base 5.0.2
 WKPageSetMuted@Base 5.212.0~alpha2
 WKPageSetPageAndTextZoomFactors@Base 5.0.2
 WKPageSetPageContextMenuClient@Base 5.0.2
 WKPageSetPageDiagnosticLoggingClient@Base 5.212.0~alpha2
 WKPageSetPageFindClient@Base 5.0.2
 WKPageSetPageFindMatchesClient@Base 5.2.0
 WKPageSetPageFormClient@Base 5.0.2
 WKPageSetPageInjectedBundleClient@Base 5.212.0~alpha2
 WKPageSetPageLength@Base 5.0.2
 WKPageSetPageLoaderClient@Base 5.0.2
 WKPageSetPageNavigationClient@Base 5.212.0~alpha2
 WKPageSetPagePolicyClient@Base 5.0.2
 WKPageSetPageUIClient@Base 5.0.2
 WKPageSetPageZoomFactor@Base 5.0.2
 WKPageSetPaginationBehavesLikeColumns@Base 5.0.2
 WKPageSetPaginationLineGridEnabled@Base 5.212.0~alpha2
 WKPageSetPaginationMode@Base 5.0.2
 WKPageSetRubberBandsAtBottom@Base 5.2.0
 WKPageSetRubberBandsAtLeft@Base 5.212.0~alpha2
 WKPageSetRubberBandsAtRight@Base 5.212.0~alpha2
 WKPageSetRubberBandsAtTop@Base 5.2.0
 WKPageSetScaleFactor@Base 5.0.2
 WKPageSetScrollPinningBehavior@Base 5.2.0
 WKPageSetSession@Base 5.212.0~alpha2
 WKPageSetSuppressScrollbarAnimations@Base 5.0.2
 WKPageSetTextZoomFactor@Base 5.0.2
 WKPageSetUseFixedLayout@Base 5.0.2
 WKPageSetUserContentExtensionsEnabled@Base 5.212.0~alpha2
 WKPageSetVisibilityState@Base 5.2.0
 WKPageStopLoading@Base 5.0.2
 WKPageSupportsTextEncoding@Base 5.0.2
 WKPageSupportsTextZoom@Base 5.0.2
 WKPageTerminate@Base 5.0.2
 WKPageTryClose@Base 5.0.2
 WKPageTryRestoreScrollPosition@Base 5.0.2
 WKPageUseFixedLayout@Base 5.0.2
 WKPageValidateCommand@Base 5.0.2
 WKPageVerticalRubberBandingIsEnabled@Base 5.212.0~alpha2
 WKPageWillHandleHorizontalScrollEvents@Base 5.0.2
 WKPlugInInformationReplacementObscuredKey@Base 5.2.0
 WKPluginInformationBundleIdentifierKey@Base 5.2.0
 WKPluginInformationBundleVersionKey@Base 5.2.0
 WKPluginInformationDefaultLoadPolicyKey@Base 5.2.0
 WKPluginInformationDisplayNameKey@Base 5.2.0
 WKPluginInformationFrameURLKey@Base 5.2.0
 WKPluginInformationHasSandboxProfileKey@Base 5.2.0
 WKPluginInformationMIMETypeKey@Base 5.2.0
 WKPluginInformationPageURLKey@Base 5.2.0
 WKPluginInformationPathKey@Base 5.2.0
 WKPluginInformationPluginURLKey@Base 5.2.0
 WKPluginInformationPluginspageAttributeURLKey@Base 5.2.0
 WKPluginInformationUpdatePastLastBlockedVersionIsKnownAvailableKey@Base 5.2.0
 WKPluginSiteDataManagerClearAllSiteData@Base 5.0.2
 WKPluginSiteDataManagerClearSiteData@Base 5.0.2
 WKPluginSiteDataManagerGetSitesWithData@Base 5.0.2
 WKPluginSiteDataManagerGetTypeID@Base 5.0.2
 WKPointCreate@Base 5.0.2
 WKPointGetTypeID@Base 5.0.2
 WKPointGetValue@Base 5.0.2
 WKPreferencesCopyCursiveFontFamily@Base 5.0.2
 WKPreferencesCopyDefaultTextEncodingName@Base 5.0.2
 WKPreferencesCopyFTPDirectoryTemplatePath@Base 5.0.2
 WKPreferencesCopyFantasyFontFamily@Base 5.0.2
 WKPreferencesCopyFixedFontFamily@Base 5.0.2
 WKPreferencesCopyPictographFontFamily@Base 5.0.2
 WKPreferencesCopySansSerifFontFamily@Base 5.0.2
 WKPreferencesCopySerifFontFamily@Base 5.0.2
 WKPreferencesCopyStandardFontFamily@Base 5.0.2
 WKPreferencesCreate@Base 5.0.2
 WKPreferencesCreateCopy@Base 5.0.2
 WKPreferencesCreateWithIdentifier@Base 5.0.2
 WKPreferencesGetAVFoundationEnabled@Base 5.0.2
 WKPreferencesGetAVFoundationNSURLSessionEnabled@Base 5.212.0~alpha2
 WKPreferencesGetAccelerated2DCanvasEnabled@Base 5.0.2
 WKPreferencesGetAcceleratedCompositingEnabled@Base 5.0.2
 WKPreferencesGetAcceleratedCompositingForOverflowScrollEnabled@Base 5.2.0
 WKPreferencesGetAcceleratedDrawingEnabled@Base 5.0.2
 WKPreferencesGetAggressiveTileRetentionEnabled@Base 5.2.0
 WKPreferencesGetAllowsAirPlayForMediaPlayback@Base 5.212.0~alpha2
 WKPreferencesGetAntialiasedFontDilationEnabled@Base 5.212.0~alpha2
 WKPreferencesGetApplicationChromeModeEnabled@Base 5.0.2
 WKPreferencesGetArtificialPluginInitializationDelayEnabled@Base 5.0.2
 WKPreferencesGetAsynchronousPluginInitializationEnabled@Base 5.0.2
 WKPreferencesGetAsynchronousPluginInitializationEnabledForAllPlugins@Base 5.0.2
 WKPreferencesGetAsynchronousSpellCheckingEnabled@Base 5.2.0
 WKPreferencesGetAudioPlaybackRequiresUserGesture@Base 5.212.0~alpha2
 WKPreferencesGetAuthorAndUserStylesEnabled@Base 5.0.2
 WKPreferencesGetAutostartOriginPlugInSnapshottingEnabled@Base 5.2.0
 WKPreferencesGetBackspaceKeyNavigationEnabled@Base 5.0.2
 WKPreferencesGetCSSAnimationTriggersEnabled@Base 5.212.0~alpha2
 WKPreferencesGetCSSRegionsEnabled@Base 5.0.2
 WKPreferencesGetCanvasUsesAcceleratedDrawing@Base 5.0.2
 WKPreferencesGetCaretBrowsingEnabled@Base 5.0.2
 WKPreferencesGetCompositingBordersVisible@Base 5.0.2
 WKPreferencesGetCompositingRepaintCountersVisible@Base 5.0.2
 WKPreferencesGetCookieEnabled@Base 5.0.2
 WKPreferencesGetDNSPrefetchingEnabled@Base 5.0.2
 WKPreferencesGetDOMPasteAllowed@Base 5.0.2
 WKPreferencesGetDOMTimersThrottlingEnabled@Base 5.212.0~alpha2
 WKPreferencesGetDatabasesEnabled@Base 5.0.2
 WKPreferencesGetDefaultFixedFontSize@Base 5.0.2
 WKPreferencesGetDefaultFontSize@Base 5.0.2
 WKPreferencesGetDeveloperExtrasEnabled@Base 5.0.2
 WKPreferencesGetDiagnosticLoggingEnabled@Base 5.0.2
 WKPreferencesGetEditableLinkBehavior@Base 5.0.2
 WKPreferencesGetEnableInheritURIQueryComponent@Base 5.212.0~alpha2
 WKPreferencesGetEncodingDetectorEnabled@Base 5.0.2
 WKPreferencesGetFileAccessFromFileURLsAllowed@Base 5.0.2
 WKPreferencesGetFontSmoothingLevel@Base 5.0.2
 WKPreferencesGetForceFTPDirectoryListings@Base 5.0.2
 WKPreferencesGetForceSoftwareWebGLRendering@Base 5.212.0~alpha2
 WKPreferencesGetFrameFlatteningEnabled@Base 5.0.2
 WKPreferencesGetFullScreenEnabled@Base 5.0.2
 WKPreferencesGetGamepadsEnabled@Base 5.212.0~alpha2
 WKPreferencesGetHTTPEquivEnabled@Base 5.212.0~alpha2
 WKPreferencesGetHiddenPageCSSAnimationSuspensionEnabled@Base 5.2.0
 WKPreferencesGetHiddenPageDOMTimerThrottlingEnabled@Base 5.2.0
 WKPreferencesGetHixie76WebSocketProtocolEnabled@Base 5.0.2
 WKPreferencesGetHyperlinkAuditingEnabled@Base 5.0.2
 WKPreferencesGetIgnoreViewportScalingConstraints@Base 5.212.0~alpha2
 WKPreferencesGetImageControlsEnabled@Base 5.212.0~alpha2
 WKPreferencesGetIncrementalRenderingSuppressionTimeout@Base 5.2.0
 WKPreferencesGetInlineMediaPlaybackRequiresPlaysInlineAttribute@Base 5.212.0~alpha2
 WKPreferencesGetInspectorUsesWebKitUserInterface@Base 5.0.2
 WKPreferencesGetInteractiveFormValidationEnabled@Base 5.0.2
 WKPreferencesGetJavaEnabled@Base 5.0.2
 WKPreferencesGetJavaEnabledForLocalFiles@Base 5.0.2
 WKPreferencesGetJavaScriptCanAccessClipboard@Base 5.0.2
 WKPreferencesGetJavaScriptCanOpenWindowsAutomatically@Base 5.0.2
 WKPreferencesGetJavaScriptEnabled@Base 5.0.2
 WKPreferencesGetJavaScriptMarkupEnabled@Base 5.2.0
 WKPreferencesGetJavaScriptRuntimeFlags@Base 5.212.0~alpha2
 WKPreferencesGetLoadsImagesAutomatically@Base 5.0.2
 WKPreferencesGetLoadsSiteIconsIgnoringImageLoadingPreference@Base 5.0.2
 WKPreferencesGetLocalFileContentSniffingEnabled@Base 5.0.2
 WKPreferencesGetLocalStorageEnabled@Base 5.0.2
 WKPreferencesGetLogsPageMessagesToSystemConsoleEnabled@Base 5.2.0
 WKPreferencesGetLongMousePressEnabled@Base 5.212.0~alpha2
 WKPreferencesGetMediaControlsScaleWithPageZoom@Base 5.212.0~alpha2
 WKPreferencesGetMediaPlaybackAllowsInline@Base 5.0.2
 WKPreferencesGetMediaPlaybackRequiresUserGesture@Base 5.0.2
 WKPreferencesGetMediaSourceEnabled@Base 5.212.0~alpha2
 WKPreferencesGetMediaStreamEnabled@Base 5.212.0~alpha2
 WKPreferencesGetMetaRefreshEnabled@Base 5.212.0~alpha2
 WKPreferencesGetMinimumFontSize@Base 5.0.2
 WKPreferencesGetMinimumZoomFontSize@Base 5.212.0~alpha2
 WKPreferencesGetMockCaptureDevicesEnabled@Base 5.212.0~alpha2
 WKPreferencesGetMockScrollbarsEnabled@Base 5.0.2
 WKPreferencesGetMultithreadedWebGLEnabled@Base 5.212.0~alpha2
 WKPreferencesGetNeedsSiteSpecificQuirks@Base 5.0.2
 WKPreferencesGetNewBlockInsideInlineModelEnabled@Base 5.212.0~alpha2
 WKPreferencesGetNotificationsEnabled@Base 5.0.2
 WKPreferencesGetOfflineWebApplicationCacheEnabled@Base 5.0.2
 WKPreferencesGetPDFPluginEnabled@Base 5.0.2
 WKPreferencesGetPageCacheEnabled@Base 5.0.2
 WKPreferencesGetPageCacheSupportsPlugins@Base 5.0.2
 WKPreferencesGetPageVisibilityBasedProcessSuppressionEnabled@Base 5.2.0
 WKPreferencesGetPaginateDuringLayoutEnabled@Base 5.0.2
 WKPreferencesGetPlugInSnapshottingEnabled@Base 5.0.2
 WKPreferencesGetPluginsEnabled@Base 5.0.2
 WKPreferencesGetPrimaryPlugInSnapshotDetectionEnabled@Base 5.2.0
 WKPreferencesGetPrivateBrowsingEnabled@Base 5.0.2
 WKPreferencesGetQTKitEnabled@Base 5.2.0
 WKPreferencesGetRegionBasedColumnsEnabled@Base 5.0.2
 WKPreferencesGetRequestAnimationFrameEnabled@Base 5.0.2
 WKPreferencesGetResourceUsageOverlayVisible@Base 5.212.0~alpha2
 WKPreferencesGetScreenFontSubstitutionEnabled@Base 5.0.2
 WKPreferencesGetScrollingPerformanceLoggingEnabled@Base 5.0.2
 WKPreferencesGetSelectTrailingWhitespaceEnabled@Base 5.2.0
 WKPreferencesGetServiceControlsEnabled@Base 5.212.0~alpha2
 WKPreferencesGetShouldConvertPositionStyleOnCopy@Base 5.212.0~alpha2
 WKPreferencesGetShouldDisplayCaptions@Base 5.0.2
 WKPreferencesGetShouldDisplaySubtitles@Base 5.0.2
 WKPreferencesGetShouldDisplayTextDescriptions@Base 5.0.2
 WKPreferencesGetShouldPrintBackgrounds@Base 5.0.2
 WKPreferencesGetShouldRespectImageOrientation@Base 5.0.2
 WKPreferencesGetShowsToolTipOverTruncatedText@Base 5.0.2
 WKPreferencesGetShowsURLsInToolTipsEnabled@Base 5.2.0
 WKPreferencesGetSimpleLineLayoutDebugBordersEnabled@Base 5.212.0~alpha2
 WKPreferencesGetSimpleLineLayoutEnabled@Base 5.212.0~alpha2
 WKPreferencesGetSmartInsertDeleteEnabled@Base 5.2.0
 WKPreferencesGetSnapshotAllPlugIns@Base 5.2.0
 WKPreferencesGetSpatialNavigationEnabled@Base 5.6.0~rc
 WKPreferencesGetStorageBlockingPolicy@Base 5.0.2
 WKPreferencesGetSubpixelCSSOMElementMetricsEnabled@Base 5.212.0~alpha2
 WKPreferencesGetSuppressesIncrementalRendering@Base 5.0.2
 WKPreferencesGetTabToLinksEnabled@Base 5.0.2
 WKPreferencesGetTabsToLinks@Base 5.0.2
 WKPreferencesGetTelephoneNumberParsingEnabled@Base 5.212.0~alpha2
 WKPreferencesGetTextAreasAreResizable@Base 5.0.2
 WKPreferencesGetTextAutosizingEnabled@Base 5.0.2
 WKPreferencesGetThreadedScrollingEnabled@Base 5.212.0~alpha2
 WKPreferencesGetTiledScrollingIndicatorVisible@Base 5.2.0
 WKPreferencesGetTypeID@Base 5.0.2
 WKPreferencesGetUniversalAccessFromFileURLsAllowed@Base 5.0.2
 WKPreferencesGetUseGiantTiles@Base 5.212.0~alpha2
 WKPreferencesGetViewGestureDebuggingEnabled@Base 5.212.0~alpha2
 WKPreferencesGetVisibleDebugOverlayRegions@Base 5.212.0~alpha2
 WKPreferencesGetWebAnimationsEnabled@Base 5.212.0~alpha2
 WKPreferencesGetWebArchiveDebugModeEnabled@Base 5.0.2
 WKPreferencesGetWebAudioEnabled@Base 5.0.2
 WKPreferencesGetWebGLEnabled@Base 5.0.2
 WKPreferencesGetWebSecurityEnabled@Base 5.0.2
 WKPreferencesGetXSSAuditorEnabled@Base 5.0.2
 WKPreferencesResetTestRunnerOverrides@Base 5.0.2
 WKPreferencesSetAVFoundationEnabled@Base 5.0.2
 WKPreferencesSetAVFoundationNSURLSessionEnabled@Base 5.212.0~alpha2
 WKPreferencesSetAccelerated2DCanvasEnabled@Base 5.0.2
 WKPreferencesSetAcceleratedCompositingEnabled@Base 5.0.2
 WKPreferencesSetAcceleratedCompositingForOverflowScrollEnabled@Base 5.2.0
 WKPreferencesSetAcceleratedDrawingEnabled@Base 5.0.2
 WKPreferencesSetAggressiveTileRetentionEnabled@Base 5.2.0
 WKPreferencesSetAllowsAirPlayForMediaPlayback@Base 5.212.0~alpha2
 WKPreferencesSetAntialiasedFontDilationEnabled@Base 5.212.0~alpha2
 WKPreferencesSetApplicationChromeModeEnabled@Base 5.0.2
 WKPreferencesSetArtificialPluginInitializationDelayEnabled@Base 5.0.2
 WKPreferencesSetAsynchronousPluginInitializationEnabled@Base 5.0.2
 WKPreferencesSetAsynchronousPluginInitializationEnabledForAllPlugins@Base 5.0.2
 WKPreferencesSetAsynchronousSpellCheckingEnabled@Base 5.2.0
 WKPreferencesSetAudioPlaybackRequiresUserGesture@Base 5.212.0~alpha2
 WKPreferencesSetAuthorAndUserStylesEnabled@Base 5.0.2
 WKPreferencesSetAutostartOriginPlugInSnapshottingEnabled@Base 5.2.0
 WKPreferencesSetBackspaceKeyNavigationEnabled@Base 5.0.2
 WKPreferencesSetCSSAnimationTriggersEnabled@Base 5.212.0~alpha2
 WKPreferencesSetCSSRegionsEnabled@Base 5.0.2
 WKPreferencesSetCanvasUsesAcceleratedDrawing@Base 5.0.2
 WKPreferencesSetCaretBrowsingEnabled@Base 5.0.2
 WKPreferencesSetCompositingBordersVisible@Base 5.0.2
 WKPreferencesSetCompositingRepaintCountersVisible@Base 5.0.2
 WKPreferencesSetCookieEnabled@Base 5.0.2
 WKPreferencesSetCursiveFontFamily@Base 5.0.2
 WKPreferencesSetDNSPrefetchingEnabled@Base 5.0.2
 WKPreferencesSetDOMPasteAllowed@Base 5.0.2
 WKPreferencesSetDOMTimersThrottlingEnabled@Base 5.212.0~alpha2
 WKPreferencesSetDatabasesEnabled@Base 5.0.2
 WKPreferencesSetDefaultFixedFontSize@Base 5.0.2
 WKPreferencesSetDefaultFontSize@Base 5.0.2
 WKPreferencesSetDefaultTextEncodingName@Base 5.0.2
 WKPreferencesSetDeveloperExtrasEnabled@Base 5.0.2
 WKPreferencesSetDiagnosticLoggingEnabled@Base 5.0.2
 WKPreferencesSetEditableLinkBehavior@Base 5.0.2
 WKPreferencesSetEnableInheritURIQueryComponent@Base 5.212.0~alpha2
 WKPreferencesSetEncodingDetectorEnabled@Base 5.0.2
 WKPreferencesSetFTPDirectoryTemplatePath@Base 5.0.2
 WKPreferencesSetFantasyFontFamily@Base 5.0.2
 WKPreferencesSetFileAccessFromFileURLsAllowed@Base 5.0.2
 WKPreferencesSetFixedFontFamily@Base 5.0.2
 WKPreferencesSetFontSmoothingLevel@Base 5.0.2
 WKPreferencesSetForceFTPDirectoryListings@Base 5.0.2
 WKPreferencesSetForceSoftwareWebGLRendering@Base 5.212.0~alpha2
 WKPreferencesSetFrameFlatteningEnabled@Base 5.0.2
 WKPreferencesSetFullScreenEnabled@Base 5.0.2
 WKPreferencesSetGamepadsEnabled@Base 5.212.0~alpha2
 WKPreferencesSetHTTPEquivEnabled@Base 5.212.0~alpha2
 WKPreferencesSetHiddenPageCSSAnimationSuspensionEnabled@Base 5.2.0
 WKPreferencesSetHiddenPageDOMTimerThrottlingEnabled@Base 5.2.0
 WKPreferencesSetHixie76WebSocketProtocolEnabled@Base 5.0.2
 WKPreferencesSetHyperlinkAuditingEnabled@Base 5.0.2
 WKPreferencesSetIgnoreViewportScalingConstraints@Base 5.212.0~alpha2
 WKPreferencesSetImageControlsEnabled@Base 5.212.0~alpha2
 WKPreferencesSetIncrementalRenderingSuppressionTimeout@Base 5.2.0
 WKPreferencesSetInlineMediaPlaybackRequiresPlaysInlineAttribute@Base 5.212.0~alpha2
 WKPreferencesSetInspectorUsesWebKitUserInterface@Base 5.0.2
 WKPreferencesSetInteractiveFormValidationEnabled@Base 5.0.2
 WKPreferencesSetJavaEnabled@Base 5.0.2
 WKPreferencesSetJavaEnabledForLocalFiles@Base 5.0.2
 WKPreferencesSetJavaScriptCanAccessClipboard@Base 5.0.2
 WKPreferencesSetJavaScriptCanOpenWindowsAutomatically@Base 5.0.2
 WKPreferencesSetJavaScriptEnabled@Base 5.0.2
 WKPreferencesSetJavaScriptMarkupEnabled@Base 5.2.0
 WKPreferencesSetJavaScriptRuntimeFlags@Base 5.212.0~alpha2
 WKPreferencesSetLoadsImagesAutomatically@Base 5.0.2
 WKPreferencesSetLoadsSiteIconsIgnoringImageLoadingPreference@Base 5.0.2
 WKPreferencesSetLocalFileContentSniffingEnabled@Base 5.0.2
 WKPreferencesSetLocalStorageEnabled@Base 5.0.2
 WKPreferencesSetLogsPageMessagesToSystemConsoleEnabled@Base 5.2.0
 WKPreferencesSetLongMousePressEnabled@Base 5.212.0~alpha2
 WKPreferencesSetMediaControlsScaleWithPageZoom@Base 5.212.0~alpha2
 WKPreferencesSetMediaPlaybackAllowsInline@Base 5.0.2
 WKPreferencesSetMediaPlaybackRequiresUserGesture@Base 5.0.2
 WKPreferencesSetMediaSourceEnabled@Base 5.212.0~alpha2
 WKPreferencesSetMediaStreamEnabled@Base 5.212.0~alpha2
 WKPreferencesSetMetaRefreshEnabled@Base 5.212.0~alpha2
 WKPreferencesSetMinimumFontSize@Base 5.0.2
 WKPreferencesSetMinimumZoomFontSize@Base 5.212.0~alpha2
 WKPreferencesSetMockCaptureDevicesEnabled@Base 5.212.0~alpha2
 WKPreferencesSetMockScrollbarsEnabled@Base 5.0.2
 WKPreferencesSetMultithreadedWebGLEnabled@Base 5.212.0~alpha2
 WKPreferencesSetNeedsSiteSpecificQuirks@Base 5.0.2
 WKPreferencesSetNewBlockInsideInlineModelEnabled@Base 5.212.0~alpha2
 WKPreferencesSetNotificationsEnabled@Base 5.0.2
 WKPreferencesSetOfflineWebApplicationCacheEnabled@Base 5.0.2
 WKPreferencesSetPDFPluginEnabled@Base 5.0.2
 WKPreferencesSetPageCacheEnabled@Base 5.0.2
 WKPreferencesSetPageCacheSupportsPlugins@Base 5.0.2
 WKPreferencesSetPageVisibilityBasedProcessSuppressionEnabled@Base 5.2.0
 WKPreferencesSetPaginateDuringLayoutEnabled@Base 5.0.2
 WKPreferencesSetPictographFontFamily@Base 5.0.2
 WKPreferencesSetPlugInSnapshottingEnabled@Base 5.0.2
 WKPreferencesSetPluginsEnabled@Base 5.0.2
 WKPreferencesSetPrimaryPlugInSnapshotDetectionEnabled@Base 5.2.0
 WKPreferencesSetPrivateBrowsingEnabled@Base 5.0.2
 WKPreferencesSetQTKitEnabled@Base 5.2.0
 WKPreferencesSetRegionBasedColumnsEnabled@Base 5.0.2
 WKPreferencesSetRequestAnimationFrameEnabled@Base 5.0.2
 WKPreferencesSetResourceUsageOverlayVisible@Base 5.212.0~alpha2
 WKPreferencesSetSansSerifFontFamily@Base 5.0.2
 WKPreferencesSetScreenFontSubstitutionEnabled@Base 5.0.2
 WKPreferencesSetScrollingPerformanceLoggingEnabled@Base 5.0.2
 WKPreferencesSetSelectTrailingWhitespaceEnabled@Base 5.2.0
 WKPreferencesSetSerifFontFamily@Base 5.0.2
 WKPreferencesSetServiceControlsEnabled@Base 5.212.0~alpha2
 WKPreferencesSetShouldConvertPositionStyleOnCopy@Base 5.212.0~alpha2
 WKPreferencesSetShouldDisplayCaptions@Base 5.0.2
 WKPreferencesSetShouldDisplaySubtitles@Base 5.0.2
 WKPreferencesSetShouldDisplayTextDescriptions@Base 5.0.2
 WKPreferencesSetShouldPrintBackgrounds@Base 5.0.2
 WKPreferencesSetShouldRespectImageOrientation@Base 5.0.2
 WKPreferencesSetShowsToolTipOverTruncatedText@Base 5.0.2
 WKPreferencesSetShowsURLsInToolTipsEnabled@Base 5.2.0
 WKPreferencesSetSimpleLineLayoutDebugBordersEnabled@Base 5.212.0~alpha2
 WKPreferencesSetSimpleLineLayoutEnabled@Base 5.212.0~alpha2
 WKPreferencesSetSmartInsertDeleteEnabled@Base 5.2.0
 WKPreferencesSetSnapshotAllPlugIns@Base 5.2.0
 WKPreferencesSetSpatialNavigationEnabled@Base 5.6.0~rc
 WKPreferencesSetStandardFontFamily@Base 5.0.2
 WKPreferencesSetStorageBlockingPolicy@Base 5.0.2
 WKPreferencesSetSubpixelCSSOMElementMetricsEnabled@Base 5.212.0~alpha2
 WKPreferencesSetSuppressesIncrementalRendering@Base 5.0.2
 WKPreferencesSetTabToLinksEnabled@Base 5.0.2
 WKPreferencesSetTabsToLinks@Base 5.0.2
 WKPreferencesSetTelephoneNumberParsingEnabled@Base 5.212.0~alpha2
 WKPreferencesSetTextAreasAreResizable@Base 5.0.2
 WKPreferencesSetTextAutosizingEnabled@Base 5.0.2
 WKPreferencesSetThreadedScrollingEnabled@Base 5.212.0~alpha2
 WKPreferencesSetTiledScrollingIndicatorVisible@Base 5.2.0
 WKPreferencesSetUniversalAccessFromFileURLsAllowed@Base 5.0.2
 WKPreferencesSetUseGiantTiles@Base 5.212.0~alpha2
 WKPreferencesSetUseLegacyTextAlignPositionedElementBehavior@Base 5.212.0~alpha2
 WKPreferencesSetViewGestureDebuggingEnabled@Base 5.212.0~alpha2
 WKPreferencesSetVisibleDebugOverlayRegions@Base 5.212.0~alpha2
 WKPreferencesSetWebAnimationsEnabled@Base 5.212.0~alpha2
 WKPreferencesSetWebArchiveDebugModeEnabled@Base 5.0.2
 WKPreferencesSetWebAudioEnabled@Base 5.0.2
 WKPreferencesSetWebGLEnabled@Base 5.0.2
 WKPreferencesSetWebSecurityEnabled@Base 5.0.2
 WKPreferencesSetXSSAuditorEnabled@Base 5.0.2
 WKPreferencesUseLegacyTextAlignPositionedElementBehavior@Base 5.212.0~alpha2
 WKProtectionSpaceCopyHost@Base 5.0.2
 WKProtectionSpaceCopyRealm@Base 5.0.2
 WKProtectionSpaceGetAuthenticationScheme@Base 5.0.2
 WKProtectionSpaceGetIsProxy@Base 5.0.2
 WKProtectionSpaceGetPort@Base 5.0.2
 WKProtectionSpaceGetReceivesCredentialSecurely@Base 5.0.2
 WKProtectionSpaceGetServerType@Base 5.0.2
 WKProtectionSpaceGetTypeID@Base 5.0.2
 WKRectCreate@Base 5.0.2
 WKRectGetTypeID@Base 5.0.2
 WKRectGetValue@Base 5.0.2
 WKRelease@Base 5.0.2
 WKRenderLayerCopyElementID@Base 5.0.2
 WKRenderLayerCopyElementTagName@Base 5.0.2
 WKRenderLayerCopyRendererName@Base 5.0.2
 WKRenderLayerGetAbsoluteBounds@Base 5.0.2
 WKRenderLayerGetBackingStoreMemoryEstimate@Base 5.212.0~alpha2
 WKRenderLayerGetCompositingLayerType@Base 5.0.2
 WKRenderLayerGetElementClassNames@Base 5.0.2
 WKRenderLayerGetFrameContentsLayer@Base 5.212.0~alpha2
 WKRenderLayerGetNegativeZOrderList@Base 5.0.2
 WKRenderLayerGetNormalFlowList@Base 5.0.2
 WKRenderLayerGetPositiveZOrderList@Base 5.0.2
 WKRenderLayerGetRenderer@Base 5.0.2
 WKRenderLayerGetTypeID@Base 5.0.2
 WKRenderLayerIsClipped@Base 5.0.2
 WKRenderLayerIsClipping@Base 5.0.2
 WKRenderLayerIsReflection@Base 5.0.2
 WKRenderObjectCopyElementID@Base 5.0.2
 WKRenderObjectCopyElementTagName@Base 5.0.2
 WKRenderObjectCopyName@Base 5.0.2
 WKRenderObjectCopyTextSnippet@Base 5.212.0~alpha2
 WKRenderObjectGetAbsolutePosition@Base 5.0.2
 WKRenderObjectGetChildren@Base 5.0.2
 WKRenderObjectGetElementClassNames@Base 5.0.2
 WKRenderObjectGetFrameRect@Base 5.0.2
 WKRenderObjectGetTextLength@Base 5.212.0~alpha2
 WKRenderObjectGetTypeID@Base 5.0.2
 WKResourceCacheManagerClearCacheForAllOrigins@Base 5.0.2
 WKResourceCacheManagerClearCacheForOrigin@Base 5.0.2
 WKResourceCacheManagerGetCacheOrigins@Base 5.0.2
 WKResourceCacheManagerGetTypeID@Base 5.0.2
 WKRetain@Base 5.0.2
 WKSecurityOriginCopyDatabaseIdentifier@Base 5.0.2
 WKSecurityOriginCopyHost@Base 5.0.2
 WKSecurityOriginCopyProtocol@Base 5.0.2
 WKSecurityOriginCopyToString@Base 5.0.2
 WKSecurityOriginCreate@Base 5.0.2
 WKSecurityOriginCreateFromDatabaseIdentifier@Base 5.0.2
 WKSecurityOriginCreateFromString@Base 5.0.2
 WKSecurityOriginGetHost@Base 5.0.2
 WKSecurityOriginGetPort@Base 5.0.2
 WKSecurityOriginGetProtocol@Base 5.0.2
 WKSecurityOriginGetTypeID@Base 5.0.2
 WKSerializedScriptValueCreate@Base 5.0.2
 WKSerializedScriptValueCreateWithInternalRepresentation@Base 5.0.2
 WKSerializedScriptValueDeserialize@Base 5.0.2
 WKSerializedScriptValueGetInternalRepresentation@Base 5.0.2
 WKSerializedScriptValueGetTypeID@Base 5.0.2
 WKSessionStateCopyData@Base 5.212.0~alpha2
 WKSessionStateCreateFromData@Base 5.212.0~alpha2
 WKSessionStateGetTypeID@Base 5.212.0~alpha2
 WKSizeCreate@Base 5.0.2
 WKSizeGetTypeID@Base 5.0.2
 WKSizeGetValue@Base 5.0.2
 WKStringCopyJSString@Base 5.0.2
 WKStringCreateWithJSString@Base 5.0.2
 WKStringCreateWithUTF8CString@Base 5.0.2
 WKStringGetCharacters@Base 5.0.2
 WKStringGetLength@Base 5.0.2
 WKStringGetMaximumUTF8CStringSize@Base 5.0.2
 WKStringGetTypeID@Base 5.0.2
 WKStringGetUTF8CString@Base 5.0.2
 WKStringIsEmpty@Base 5.0.2
 WKStringIsEqual@Base 5.0.2
 WKStringIsEqualToUTF8CString@Base 5.0.2
 WKStringIsEqualToUTF8CStringIgnoringCase@Base 5.0.2
 WKTextCheckerChangeSpellingToWord@Base 5.0.2
 WKTextCheckerCheckSpelling@Base 5.0.2
 WKTextCheckerContinuousSpellCheckingEnabledStateChanged@Base 5.0.2
 WKTextCheckerGrammarCheckingEnabledStateChanged@Base 5.0.2
 WKTextCheckerSetClient@Base 5.0.2
 WKUInt64Create@Base 5.0.2
 WKUInt64GetTypeID@Base 5.0.2
 WKUInt64GetValue@Base 5.0.2
 WKURLCopyHostName@Base 5.0.2
 WKURLCopyLastPathComponent@Base 5.0.2
 WKURLCopyPath@Base 5.0.2
 WKURLCopyScheme@Base 5.0.2
 WKURLCopyString@Base 5.0.2
 WKURLCreateWithBaseURL@Base 5.0.2
 WKURLCreateWithUTF8CString@Base 5.0.2
 WKURLGetTypeID@Base 5.0.2
 WKURLIsEqual@Base 5.0.2
 WKURLRequestCopyFirstPartyForCookies@Base 5.0.2
 WKURLRequestCopyHTTPMethod@Base 5.0.2
 WKURLRequestCopySettingHTTPBody@Base 5.212.0~alpha2
 WKURLRequestCopyURL@Base 5.0.2
 WKURLRequestCreateWithWKURL@Base 5.0.2
 WKURLRequestGetTypeID@Base 5.0.2
 WKURLRequestSetDefaultTimeoutInterval@Base 5.0.2
 WKURLResponseCopyMIMEType@Base 5.0.2
 WKURLResponseCopySuggestedFilename@Base 5.0.2
 WKURLResponseCopyURL@Base 5.0.2
 WKURLResponseGetExpectedContentLength@Base 5.2.0
 WKURLResponseGetTypeID@Base 5.0.2
 WKURLResponseHTTPStatusCode@Base 5.0.2
 WKURLResponseIsAttachment@Base 5.0.2
 WKUserContentControllerAddUserContentFilter@Base 5.212.0~alpha2
 WKUserContentControllerAddUserScript@Base 5.212.0~alpha2
 WKUserContentControllerCopyUserScripts@Base 5.212.0~alpha2
 WKUserContentControllerCreate@Base 5.212.0~alpha2
 WKUserContentControllerGetTypeID@Base 5.212.0~alpha2
 WKUserContentControllerRemoveAllUserContentFilters@Base 5.212.0~alpha2
 WKUserContentControllerRemoveAllUserScripts@Base 5.212.0~alpha2
 WKUserContentURLPatternCopyHost@Base 5.0.2
 WKUserContentURLPatternCopyScheme@Base 5.0.2
 WKUserContentURLPatternCreate@Base 5.0.2
 WKUserContentURLPatternGetTypeID@Base 5.0.2
 WKUserContentURLPatternIsValid@Base 5.0.2
 WKUserContentURLPatternMatchesSubdomains@Base 5.0.2
 WKUserContentURLPatternMatchesURL@Base 5.0.2
 WKUserMediaPermissionCheckGetTypeID@Base 5.212.0~alpha2
 WKUserMediaPermissionCheckSetHasPersistentPermission@Base 5.212.0~alpha2
 WKUserMediaPermissionRequestAllow@Base 5.212.0~alpha2
 WKUserMediaPermissionRequestAudioDeviceUIDs@Base 5.212.0~alpha2
 WKUserMediaPermissionRequestDeny@Base 5.212.0~alpha2
 WKUserMediaPermissionRequestGetTypeID@Base 5.212.0~alpha2
 WKUserMediaPermissionRequestVideoDeviceUIDs@Base 5.212.0~alpha2
 WKVibrationGetTypeID@Base 5.0.2
 WKVibrationSetProvider@Base 5.0.2
 WKViewportAttributesGetTypeID@Base 5.212.0~alpha2
 WKWindowFeaturesGetTypeID@Base 5.212.0~alpha2
 _Z13WKURLCopyQUrlPK11OpaqueWKURL@Base 5.2.0
 _Z14qWebKitVersionv@Base 5.0.2
 _Z16WKURLCopyQStringPK11OpaqueWKURL@Base 5.2.0
 _Z19WKImageCreateQImagePK13OpaqueWKImage@Base 5.0.2
 _Z19WKStringCopyQStringPK14OpaqueWKString@Base 5.0.2
 _Z19WKURLCreateWithQUrlRK4QUrl@Base 5.0.2
 _Z19qWebKitMajorVersionv@Base 5.0.2
 _Z19qWebKitMinorVersionv@Base 5.0.2
 _Z22WKURLCreateWithQStringRK7QString@Base 5.2.0
 _Z23WKImageCreateFromQImageRK6QImage@Base 5.0.2
 _Z23qt_networkAccessAllowedb@Base 5.0.2
 _Z25WKStringCreateWithQStringRK7QString@Base 5.0.2
 _Z32WKIconDatabaseTryGetQImageForURLPK20OpaqueWKIconDatabasePK11OpaqueWKURL@Base 5.2.0
 _ZN10UndoStepQt4redoEv@Base 5.0.2
 _ZN10UndoStepQt4undoEv@Base 5.0.2
 _ZN10UndoStepQtC1EN3WTF6RefPtrIN7WebCore8UndoStepEEE@Base 5.0.2
 _ZN10UndoStepQtC2EN3WTF6RefPtrIN7WebCore8UndoStepEEE@Base 5.0.2
 _ZN10UndoStepQtD1Ev@Base 5.0.2
 _ZN10UndoStepQtD2Ev@Base 5.0.2
 _ZN11QWebElement11encloseWithERK7QString@Base 5.0.2
 _ZN11QWebElement11encloseWithERKS_@Base 5.0.2
 _ZN11QWebElement11removeClassERK7QString@Base 5.0.2
 _ZN11QWebElement11setInnerXmlERK7QString@Base 5.0.2
 _ZN11QWebElement11setOuterXmlERK7QString@Base 5.0.2
 _ZN11QWebElement11toggleClassERK7QString@Base 5.0.2
 _ZN11QWebElement12appendInsideERK7QString@Base 5.0.2
 _ZN11QWebElement12appendInsideERKS_@Base 5.0.2
 _ZN11QWebElement12setAttributeERK7QStringS2_@Base 5.0.2
 _ZN11QWebElement12setPlainTextERK7QString@Base 5.0.2
 _ZN11QWebElement13appendOutsideERK7QString@Base 5.0.2
 _ZN11QWebElement13appendOutsideERKS_@Base 5.0.2
 _ZN11QWebElement13prependInsideERK7QString@Base 5.0.2
 _ZN11QWebElement13prependInsideERKS_@Base 5.0.2
 _ZN11QWebElement14prependOutsideERK7QString@Base 5.0.2
 _ZN11QWebElement14prependOutsideERKS_@Base 5.0.2
 _ZN11QWebElement14setAttributeNSERK7QStringS2_S2_@Base 5.0.2
 _ZN11QWebElement15removeAttributeERK7QString@Base 5.0.2
 _ZN11QWebElement16setStylePropertyERK7QStringS2_@Base 5.0.2
 _ZN11QWebElement16takeFromDocumentEv@Base 5.0.2
 _ZN11QWebElement17endExitFullScreenEv@Base 5.212.0~alpha2
 _ZN11QWebElement17removeAllChildrenEv@Base 5.0.2
 _ZN11QWebElement17removeAttributeNSERK7QStringS2_@Base 5.0.2
 _ZN11QWebElement18endEnterFullScreenEv@Base 5.212.0~alpha2
 _ZN11QWebElement18evaluateJavaScriptERK7QString@Base 5.0.2
 _ZN11QWebElement18removeFromDocumentEv@Base 5.0.2
 _ZN11QWebElement19beginExitFullScreenEv@Base 5.212.0~alpha2
 _ZN11QWebElement19encloseContentsWithERK7QString@Base 5.0.2
 _ZN11QWebElement19encloseContentsWithERKS_@Base 5.0.2
 _ZN11QWebElement20beginEnterFullScreenEv@Base 5.212.0~alpha2
 _ZN11QWebElement6renderEP8QPainter@Base 5.0.2
 _ZN11QWebElement6renderEP8QPainterRK5QRect@Base 5.0.2
 _ZN11QWebElement7replaceERK7QString@Base 5.0.2
 _ZN11QWebElement7replaceERKS_@Base 5.0.2
 _ZN11QWebElement8addClassERK7QString@Base 5.0.2
 _ZN11QWebElement8setFocusEv@Base 5.0.2
 _ZN11QWebElementC1EPN7WebCore7ElementE@Base 5.0.2
 _ZN11QWebElementC1ERKS_@Base 5.0.2
 _ZN11QWebElementC1Ev@Base 5.0.2
 _ZN11QWebElementC2EPN7WebCore7ElementE@Base 5.0.2
 _ZN11QWebElementC2ERKS_@Base 5.0.2
 _ZN11QWebElementC2Ev@Base 5.0.2
 _ZN11QWebElementD1Ev@Base 5.0.2
 _ZN11QWebElementD2Ev@Base 5.0.2
 _ZN11QWebElementaSERKS_@Base 5.0.2
 _ZN11QWebHistory11loadFromMapERK4QMapI7QString8QVariantE@Base 5.212.0~alpha2
 _ZN11QWebHistory19setMaximumItemCountEi@Base 5.0.2
 _ZN11QWebHistory4backEv@Base 5.0.2
 _ZN11QWebHistory5clearEv@Base 5.0.2
 _ZN11QWebHistory7forwardEv@Base 5.0.2
 _ZN11QWebHistory8goToItemERK15QWebHistoryItem@Base 5.0.2
 _ZN11QWebHistoryC1Ev@Base 5.0.2
 _ZN11QWebHistoryC2Ev@Base 5.0.2
 _ZN11QWebHistoryD1Ev@Base 5.0.2
 _ZN11QWebHistoryD2Ev@Base 5.0.2
 _ZN11QWebKitTest10wheelEventEP7QObjectddiN2Qt11OrientationE@Base 5.2.0
 _ZN11QWebKitTest11qt_metacallEN11QMetaObject4CallEiPPv@Base 5.0.2
 _ZN11QWebKitTest11qt_metacastEPKc@Base 5.0.2
 _ZN11QWebKitTest14sendTouchEventEP13QQuickWebViewN6QEvent4TypeERK5QListIN11QTouchEvent10TouchPointEEm@Base 5.0.2
 _ZN11QWebKitTest14touchDoubleTapEP7QObjectddi@Base 5.2.0
 _ZN11QWebKitTest15viewportChangedEv@Base 5.0.2
 _ZN11QWebKitTest16staticMetaObjectE@Base 5.0.2
 _ZN11QWebKitTest19contentsSizeChangedEv@Base 5.0.2
 _ZN11QWebKitTest20contentsScaleChangedEv@Base 5.0.2
 _ZN11QWebKitTest22contentsScaleCommittedEv@Base 5.0.2
 _ZN11QWebKitTest23devicePixelRatioChangedEv@Base 5.0.2
 _ZN11QWebKitTest8touchTapEP7QObjectddi@Base 5.2.0
 _ZN11QWebKitTestC1EP20QQuickWebViewPrivateP7QObject@Base 5.0.2
 _ZN11QWebKitTestC2EP20QQuickWebViewPrivateP7QObject@Base 5.0.2
 _ZN11QWebKitTestD0Ev@Base 5.0.2
 _ZN11QWebKitTestD1Ev@Base 5.0.2
 _ZN11QWebKitTestD2Ev@Base 5.0.2
 _ZN12QWebDatabase14removeDatabaseERKS_@Base 5.0.2
 _ZN12QWebDatabase18removeAllDatabasesEv@Base 5.0.2
 _ZN12QWebDatabaseC1EP19QWebDatabasePrivate@Base 5.0.2
 _ZN12QWebDatabaseC1ERKS_@Base 5.0.2
 _ZN12QWebDatabaseC2EP19QWebDatabasePrivate@Base 5.0.2
 _ZN12QWebDatabaseC2ERKS_@Base 5.0.2
 _ZN12QWebDatabaseD1Ev@Base 5.0.2
 _ZN12QWebDatabaseD2Ev@Base 5.0.2
 _ZN12QWebDatabaseaSERKS_@Base 5.0.2
 _ZN12QWebSettings10iconForUrlERK4QUrl@Base 5.0.2
 _ZN12QWebSettings10webGraphicENS_10WebGraphicE@Base 5.0.2
 _ZN12QWebSettings11setFontSizeENS_8FontSizeEi@Base 5.0.2
 _ZN12QWebSettings12setAttributeENS_12WebAttributeEb@Base 5.0.2
 _ZN12QWebSettings13resetFontSizeENS_8FontSizeE@Base 5.0.2
 _ZN12QWebSettings13setFontFamilyENS_10FontFamilyERK7QString@Base 5.0.2
 _ZN12QWebSettings13setWebGraphicENS_10WebGraphicERK7QPixmap@Base 5.0.2
 _ZN12QWebSettings14globalSettingsEv@Base 5.0.2
 _ZN12QWebSettings14resetAttributeENS_12WebAttributeE@Base 5.0.2
 _ZN12QWebSettings15resetFontFamilyENS_10FontFamilyE@Base 5.0.2
 _ZN12QWebSettings15setCSSMediaTypeERK7QString@Base 5.2.0
 _ZN12QWebSettings16iconDatabasePathEv@Base 5.0.2
 _ZN12QWebSettings17clearIconDatabaseEv@Base 5.0.2
 _ZN12QWebSettings17clearMemoryCachesEv@Base 5.0.2
 _ZN12QWebSettings17pluginSearchPathsEv@Base 5.212.0~alpha2
 _ZN12QWebSettings18offlineStoragePathEv@Base 5.0.2
 _ZN12QWebSettings19maximumPagesInCacheEv@Base 5.0.2
 _ZN12QWebSettings19setIconDatabasePathERK7QString@Base 5.0.2
 _ZN12QWebSettings19setLocalStoragePathERK7QString@Base 5.0.2
 _ZN12QWebSettings20setPluginSearchPathsERK11QStringList@Base 5.212.0~alpha2
 _ZN12QWebSettings20setUserStyleSheetUrlERK4QUrl@Base 5.0.2
 _ZN12QWebSettings21setOfflineStoragePathERK7QString@Base 5.0.2
 _ZN12QWebSettings22setDefaultTextEncodingERK7QString@Base 5.0.2
 _ZN12QWebSettings22setMaximumPagesInCacheEi@Base 5.0.2
 _ZN12QWebSettings23enablePersistentStorageERK7QString@Base 5.0.2
 _ZN12QWebSettings24setObjectCacheCapacitiesEiii@Base 5.0.2
 _ZN12QWebSettings25setThirdPartyCookiePolicyENS_22ThirdPartyCookiePolicyE@Base 5.0.2
 _ZN12QWebSettings26offlineStorageDefaultQuotaEv@Base 5.0.2
 _ZN12QWebSettings29setOfflineStorageDefaultQuotaEx@Base 5.0.2
 _ZN12QWebSettings30offlineWebApplicationCachePathEv@Base 5.0.2
 _ZN12QWebSettings31offlineWebApplicationCacheQuotaEv@Base 5.0.2
 _ZN12QWebSettings33setOfflineWebApplicationCachePathERK7QString@Base 5.0.2
 _ZN12QWebSettings34setOfflineWebApplicationCacheQuotaEx@Base 5.0.2
 _ZN12QWebSettingsC1EPN7WebCore4PageE@Base 5.212.0~alpha2
 _ZN12QWebSettingsC1Ev@Base 5.0.2
 _ZN12QWebSettingsC2EPN7WebCore4PageE@Base 5.212.0~alpha2
 _ZN12QWebSettingsC2Ev@Base 5.0.2
 _ZN12QWebSettingsD1Ev@Base 5.0.2
 _ZN12QWebSettingsD2Ev@Base 5.0.2
 _ZN13QQuickWebPage11qt_metacallEN11QMetaObject4CallEiPPv@Base 5.0.2
 _ZN13QQuickWebPage11qt_metacastEPKc@Base 5.0.2
 _ZN13QQuickWebPage15setContentsSizeERK6QSizeF@Base 5.0.2
 _ZN13QQuickWebPage15updatePaintNodeEP7QSGNodePN10QQuickItem19UpdatePaintNodeDataE@Base 5.0.2
 _ZN13QQuickWebPage16setContentsScaleEd@Base 5.2.0
 _ZN13QQuickWebPage16staticMetaObjectE@Base 5.0.2
 _ZN13QQuickWebPageC1EP13QQuickWebView@Base 5.0.2
 _ZN13QQuickWebPageC2EP13QQuickWebView@Base 5.0.2
 _ZN13QQuickWebPageD0Ev@Base 5.0.2
 _ZN13QQuickWebPageD1Ev@Base 5.0.2
 _ZN13QQuickWebPageD2Ev@Base 5.0.2
 _ZN13QQuickWebView10itemChangeEN10QQuickItem10ItemChangeERKNS0_14ItemChangeDataE@Base 5.0.2
 _ZN13QQuickWebView10touchEventEP11QTouchEvent@Base 5.0.2
 _ZN13QQuickWebView10urlChangedEv@Base 5.0.2
 _ZN13QQuickWebView10wheelEventEP11QWheelEvent@Base 5.0.2
 _ZN13QQuickWebView11iconChangedEv@Base 5.0.2
 _ZN13QQuickWebView11linkHoveredERK4QUrlRK7QString@Base 5.0.2
 _ZN13QQuickWebView11qt_metacallEN11QMetaObject4CallEiPPv@Base 5.0.2
 _ZN13QQuickWebView11qt_metacastEPKc@Base 5.0.2
 _ZN13QQuickWebView12focusInEventEP11QFocusEvent@Base 5.0.2
 _ZN13QQuickWebView12titleChangedEv@Base 5.0.2
 _ZN13QQuickWebView13dragMoveEventEP14QDragMoveEvent@Base 5.0.2
 _ZN13QQuickWebView13keyPressEventEP9QKeyEvent@Base 5.0.2
 _ZN13QQuickWebView13setContentPosERK7QPointF@Base 5.0.2
 _ZN13QQuickWebView13setZoomFactorEd@Base 5.2.0
 _ZN13QQuickWebView14dragEnterEventEP15QDragEnterEvent@Base 5.0.2
 _ZN13QQuickWebView14dragLeaveEventEP15QDragLeaveEvent@Base 5.0.2
 _ZN13QQuickWebView14hoverMoveEventEP11QHoverEvent@Base 5.0.2
 _ZN13QQuickWebView14loadingChangedEP15QWebLoadRequest@Base 5.0.2
 _ZN13QQuickWebView14mouseMoveEventEP11QMouseEvent@Base 5.0.2
 _ZN13QQuickWebView15geometryChangedERK6QRectFS2_@Base 5.0.2
 _ZN13QQuickWebView15hoverEnterEventEP11QHoverEvent@Base 5.0.2
 _ZN13QQuickWebView15hoverLeaveEventEP11QHoverEvent@Base 5.0.2
 _ZN13QQuickWebView15keyReleaseEventEP9QKeyEvent@Base 5.0.2
 _ZN13QQuickWebView15mousePressEventEP11QMouseEvent@Base 5.0.2
 _ZN13QQuickWebView16inputMethodEventEP17QInputMethodEvent@Base 5.0.2
 _ZN13QQuickWebView16staticMetaObjectE@Base 5.0.2
 _ZN13QQuickWebView17componentCompleteEv@Base 5.0.2
 _ZN13QQuickWebView17mouseReleaseEventEP11QMouseEvent@Base 5.0.2
 _ZN13QQuickWebView18platformInitializeEv@Base 5.0.2
 _ZN13QQuickWebView19loadProgressChangedEv@Base 5.0.2
 _ZN13QQuickWebView19navigationRequestedEP21QWebNavigationRequest@Base 5.0.2
 _ZN13QQuickWebView21childMouseEventFilterEP10QQuickItemP6QEvent@Base 5.0.2
 _ZN13QQuickWebView21emitUrlChangeIfNeededEv@Base 5.0.2
 _ZN13QQuickWebView21mouseDoubleClickEventEP11QMouseEvent@Base 5.0.2
 _ZN13QQuickWebView21qmlAttachedPropertiesEP7QObject@Base 5.0.2
 _ZN13QQuickWebView24handleFlickableMouseMoveERK7QPointFx@Base 5.0.2
 _ZN13QQuickWebView24navigationHistoryChangedEv@Base 5.0.2
 _ZN13QQuickWebView24runJavaScriptInMainFrameERK7QStringP7QObjectPKc@Base 5.0.2
 _ZN13QQuickWebView25handleFlickableMousePressERK7QPointFx@Base 5.0.2
 _ZN13QQuickWebView27handleFlickableMouseReleaseERK7QPointFx@Base 5.0.2
 _ZN13QQuickWebView39setAllowAnyHTTPSCertificateForLocalHostEb@Base 5.0.2
 _ZN13QQuickWebView4pageEv@Base 5.0.2
 _ZN13QQuickWebView4stopEv@Base 5.0.2
 _ZN13QQuickWebView5eventEP6QEvent@Base 5.0.2
 _ZN13QQuickWebView6goBackEv@Base 5.0.2
 _ZN13QQuickWebView6reloadEv@Base 5.0.2
 _ZN13QQuickWebView6setUrlERK4QUrl@Base 5.0.2
 _ZN13QQuickWebView8loadHtmlERK7QStringRK4QUrlS5_@Base 5.0.2
 _ZN13QQuickWebView9dropEventEP10QDropEvent@Base 5.0.2
 _ZN13QQuickWebView9goForwardEv@Base 5.0.2
 _ZN13QQuickWebViewC1EP10QQuickItem@Base 5.0.2
 _ZN13QQuickWebViewC1EPK25OpaqueWKPageConfiguration@Base 5.212.0~alpha2
 _ZN13QQuickWebViewC2EP10QQuickItem@Base 5.0.2
 _ZN13QQuickWebViewC2EPK25OpaqueWKPageConfiguration@Base 5.212.0~alpha2
 _ZN13QQuickWebViewD0Ev@Base 5.0.2
 _ZN13QQuickWebViewD1Ev@Base 5.0.2
 _ZN13QQuickWebViewD2Ev@Base 5.0.2
 _ZN14QWebPluginInfo10setEnabledEb@Base 5.0.2
 _ZN14QWebPluginInfoC1EPN7WebCore13PluginPackageE@Base 5.0.2
 _ZN14QWebPluginInfoC1ERKS_@Base 5.0.2
 _ZN14QWebPluginInfoC1Ev@Base 5.0.2
 _ZN14QWebPluginInfoC2EPN7WebCore13PluginPackageE@Base 5.0.2
 _ZN14QWebPluginInfoC2ERKS_@Base 5.0.2
 _ZN14QWebPluginInfoC2Ev@Base 5.0.2
 _ZN14QWebPluginInfoD1Ev@Base 5.0.2
 _ZN14QWebPluginInfoD2Ev@Base 5.0.2
 _ZN14QWebPluginInfoaSERKS_@Base 5.0.2
 _ZN14QtPrintContext9spoolPageEif@Base 5.0.2
 _ZN14QtPrintContextC1EP8QPainterRK5QRectP16QWebFrameAdapter@Base 5.0.2
 _ZN14QtPrintContextC2EP8QPainterRK5QRectP16QWebFrameAdapter@Base 5.0.2
 _ZN14QtPrintContextD1Ev@Base 5.0.2
 _ZN14QtPrintContextD2Ev@Base 5.0.2
 _ZN15QWebHistoryItem11loadFromMapERK4QMapI7QString8QVariantE@Base 5.212.0~alpha2
 _ZN15QWebHistoryItem11setUserDataERK8QVariant@Base 5.0.2
 _ZN15QWebHistoryItemC1EP22QWebHistoryItemPrivate@Base 5.0.2
 _ZN15QWebHistoryItemC1ERKS_@Base 5.0.2
 _ZN15QWebHistoryItemC2EP22QWebHistoryItemPrivate@Base 5.0.2
 _ZN15QWebHistoryItemC2ERKS_@Base 5.0.2
 _ZN15QWebHistoryItemD1Ev@Base 5.0.2
 _ZN15QWebHistoryItemD2Ev@Base 5.0.2
 _ZN15QWebHistoryItemaSERKS_@Base 5.0.2
 _ZN15QWebLoadRequest11qt_metacallEN11QMetaObject4CallEiPPv@Base 5.0.2
 _ZN15QWebLoadRequest11qt_metacastEPKc@Base 5.0.2
 _ZN15QWebLoadRequest16staticMetaObjectE@Base 5.0.2
 _ZN15QWebLoadRequestC1ERK4QUrlN13QQuickWebView10LoadStatusERK7QStringNS3_11ErrorDomainEiP7QObject@Base 5.0.2
 _ZN15QWebLoadRequestC2ERK4QUrlN13QQuickWebView10LoadStatusERK7QStringNS3_11ErrorDomainEiP7QObject@Base 5.0.2
 _ZN15QWebLoadRequestD0Ev@Base 5.0.2
 _ZN15QWebLoadRequestD1Ev@Base 5.0.2
 _ZN15QWebLoadRequestD2Ev@Base 5.0.2
 _ZN15QWebPageAdapter10deletePageEv@Base 5.0.2
 _ZN15QWebPageAdapter10touchEventEP11QTouchEvent@Base 5.0.2
 _ZN15QWebPageAdapter10wheelEventEP11QWheelEventi@Base 5.0.2
 _ZN15QWebPageAdapter11dragEnteredEPK9QMimeDataRK6QPoint6QFlagsIN2Qt10DropActionEE@Base 5.0.2
 _ZN15QWebPageAdapter11dragUpdatedEPK9QMimeDataRK6QPoint6QFlagsIN2Qt10DropActionEE@Base 5.0.2
 _ZN15QWebPageAdapter11performDragEPK9QMimeDataRK6QPoint6QFlagsIN2Qt10DropActionEE@Base 5.0.2
 _ZN15QWebPageAdapter12focusInEventEP11QFocusEvent@Base 5.0.2
 _ZN15QWebPageAdapter12tryClosePageEv@Base 5.212.0~alpha2
 _ZN15QWebPageAdapter13focusOutEventEP11QFocusEvent@Base 5.0.2
 _ZN15QWebPageAdapter13triggerActionENS_10MenuActionEP24QWebHitTestResultPrivatePKcb@Base 5.0.2
 _ZN15QWebPageAdapter14dragLeaveEventEv@Base 5.0.2
 _ZN15QWebPageAdapter14handleKeyEventEP9QKeyEvent@Base 5.0.2
 _ZN15QWebPageAdapter14mouseMoveEventEP11QMouseEvent@Base 5.0.2
 _ZN15QWebPageAdapter15handleScrollingEP9QKeyEvent@Base 5.0.2
 _ZN15QWebPageAdapter15mousePressEventEP11QMouseEvent@Base 5.0.2
 _ZN15QWebPageAdapter16devicePixelRatioEv@Base 5.212.0~alpha2
 _ZN15QWebPageAdapter16didShowInspectorEv@Base 5.0.2
 _ZN15QWebPageAdapter16inputMethodEventEP17QInputMethodEvent@Base 5.0.2
 _ZN15QWebPageAdapter16registerUndoStepEN3WTF10PassRefPtrIN7WebCore8UndoStepEEE@Base 5.0.2
 _ZN15QWebPageAdapter17didCloseInspectorEv@Base 5.0.2
 _ZN15QWebPageAdapter17mouseReleaseEventEP11QMouseEvent@Base 5.0.2
 _ZN15QWebPageAdapter17setPluginsVisibleEb@Base 5.4.2
 _ZN15QWebPageAdapter17setSystemTrayIconEP7QObject@Base 5.0.2
 _ZN15QWebPageAdapter18setContentEditableEb@Base 5.0.2
 _ZN15QWebPageAdapter18setVisibilityStateENS_15VisibilityStateE@Base 5.2.0
 _ZN15QWebPageAdapter18treatSchemeAsLocalERK7QString@Base 5.0.2
 _ZN15QWebPageAdapter19setDevicePixelRatioEf@Base 5.3.0
 _ZN15QWebPageAdapter19triggerCustomActionEiRK7QString@Base 5.9.0
 _ZN15QWebPageAdapter20networkAccessManagerEv@Base 5.0.2
 _ZN15QWebPageAdapter20setFullScreenElementERK11QWebElement@Base 5.212.0~alpha2
 _ZN15QWebPageAdapter20updateActionInternalENS_10MenuActionEPKcPbS3_@Base 5.0.2
 _ZN15QWebPageAdapter21initializeWebCorePageEv@Base 5.0.2
 _ZN15QWebPageAdapter21mouseDoubleClickEventEP11QMouseEvent@Base 5.0.2
 _ZN15QWebPageAdapter21mouseTripleClickEventEP11QMouseEvent@Base 5.0.2
 _ZN15QWebPageAdapter22_q_cleanupLeakMessagesEv@Base 5.0.2
 _ZN15QWebPageAdapter22adjustPointForClickingEP11QMouseEvent@Base 5.0.2
 _ZN15QWebPageAdapter22defaultUserAgentStringEv@Base 5.0.2
 _ZN15QWebPageAdapter23setNetworkAccessManagerEP21QNetworkAccessManager@Base 5.0.2
 _ZN15QWebPageAdapter23swallowContextMenuEventEP17QContextMenuEventP16QWebFrameAdapter@Base 5.0.2
 _ZN15QWebPageAdapter24_q_onLoadProgressChangedEi@Base 5.0.2
 _ZN15QWebPageAdapter24handleSoftwareInputPanelEN2Qt11MouseButtonERK6QPoint@Base 5.0.2
 _ZN15QWebPageAdapter26dynamicPropertyChangeEventEP7QObjectP27QDynamicPropertyChangeEvent@Base 5.0.2
 _ZN15QWebPageAdapter27handleShortcutOverrideEventEP9QKeyEvent@Base 5.0.2
 _ZN15QWebPageAdapter29setGeolocationEnabledForFrameEP16QWebFrameAdapterb@Base 5.212.0~alpha2
 _ZN15QWebPageAdapter30addNotificationPresenterClientEv@Base 5.0.2
 _ZN15QWebPageAdapter31setNotificationsAllowedForFrameEP16QWebFrameAdapterb@Base 5.0.2
 _ZN15QWebPageAdapter34updatePositionDependentMenuActionsERK6QPointP9QBitArray@Base 5.0.2
 _ZN15QWebPageAdapter3kitEPN7WebCore4PageE@Base 5.0.2
 _ZN15QWebPageAdapter6drtRunE@Base 5.0.2
 _ZN15QWebPageAdapter8findTextERK7QStringNS_8FindFlagE@Base 5.0.2
 _ZN15QWebPageAdapterC1Ev@Base 5.0.2
 _ZN15QWebPageAdapterC2Ev@Base 5.0.2
 _ZN15QWebPageAdapterD0Ev@Base 5.0.2
 _ZN15QWebPageAdapterD1Ev@Base 5.0.2
 _ZN15QWebPageAdapterD2Ev@Base 5.0.2
 _ZN15QWebPreferences11qt_metacallEN11QMetaObject4CallEiPPv@Base 5.0.2
 _ZN15QWebPreferences11qt_metacastEPKc@Base 5.0.2
 _ZN15QWebPreferences15setWebGLEnabledEb@Base 5.0.2
 _ZN15QWebPreferences16staticMetaObjectE@Base 5.0.2
 _ZN15QWebPreferences17setAutoLoadImagesEb@Base 5.0.2
 _ZN15QWebPreferences17setPluginsEnabledEb@Base 5.0.2
 _ZN15QWebPreferences18setDefaultFontSizeEj@Base 5.0.2
 _ZN15QWebPreferences18setFixedFontFamilyERK7QString@Base 5.0.2
 _ZN15QWebPreferences18setMinimumFontSizeEj@Base 5.0.2
 _ZN15QWebPreferences18setSerifFontFamilyERK7QString@Base 5.0.2
 _ZN15QWebPreferences18setWebAudioEnabledEb@Base 5.0.2
 _ZN15QWebPreferences19webGLEnabledChangedEv@Base 5.0.2
 _ZN15QWebPreferences20setCursiveFontFamilyERK7QString@Base 5.0.2
 _ZN15QWebPreferences20setFantasyFontFamilyERK7QString@Base 5.0.2
 _ZN15QWebPreferences20setFullScreenEnabledEb@Base 5.0.2
 _ZN15QWebPreferences20setJavascriptEnabledEb@Base 5.0.2
 _ZN15QWebPreferences21autoLoadImagesChangedEv@Base 5.0.2
 _ZN15QWebPreferences21pluginsEnabledChangedEv@Base 5.0.2
 _ZN15QWebPreferences21setDnsPrefetchEnabledEb@Base 5.0.2
 _ZN15QWebPreferences21setStandardFontFamilyERK7QString@Base 5.0.2
 _ZN15QWebPreferences21setXssAuditingEnabledEb@Base 5.0.2
 _ZN15QWebPreferences22defaultFontSizeChangedEv@Base 5.0.2
 _ZN15QWebPreferences22fixedFontFamilyChangedEv@Base 5.0.2
 _ZN15QWebPreferences22minimumFontSizeChangedEv@Base 5.0.2
 _ZN15QWebPreferences22serifFontFamilyChangedEv@Base 5.0.2
 _ZN15QWebPreferences22setLocalStorageEnabledEb@Base 5.0.2
 _ZN15QWebPreferences22setSansSerifFontFamilyERK7QString@Base 5.0.2
 _ZN15QWebPreferences22webAudioEnabledChangedEv@Base 5.0.2
 _ZN15QWebPreferences23setCaretBrowsingEnabledEb@Base 5.0.2
 _ZN15QWebPreferences23setDefaultFixedFontSizeEj@Base 5.0.2
 _ZN15QWebPreferences23setNotificationsEnabledEb@Base 5.0.2
 _ZN15QWebPreferences24cursiveFontFamilyChangedEv@Base 5.0.2
 _ZN15QWebPreferences24fantasyFontFamilyChangedEv@Base 5.0.2
 _ZN15QWebPreferences24fullScreenEnabledChangedEv@Base 5.0.2
 _ZN15QWebPreferences24javascriptEnabledChangedEv@Base 5.0.2
 _ZN15QWebPreferences25dnsPrefetchEnabledChangedEv@Base 5.0.2
 _ZN15QWebPreferences25setDeveloperExtrasEnabledEb@Base 5.0.2
 _ZN15QWebPreferences25setFrameFlatteningEnabledEb@Base 5.0.2
 _ZN15QWebPreferences25setPrivateBrowsingEnabledEb@Base 5.0.2
 _ZN15QWebPreferences25standardFontFamilyChangedEv@Base 5.0.2
 _ZN15QWebPreferences25xssAuditingEnabledChangedEv@Base 5.0.2
 _ZN15QWebPreferences26localStorageEnabledChangedEv@Base 5.0.2
 _ZN15QWebPreferences26sansSerifFontFamilyChangedEv@Base 5.0.2
 _ZN15QWebPreferences27caretBrowsingEnabledChangedEv@Base 5.0.2
 _ZN15QWebPreferences27defaultFixedFontSizeChangedEv@Base 5.0.2
 _ZN15QWebPreferences27notificationsEnabledChangedEv@Base 5.0.2
 _ZN15QWebPreferences27setNavigatorQtObjectEnabledEb@Base 5.0.2
 _ZN15QWebPreferences27setSpatialNavigationEnabledEb@Base 5.6.0~rc
 _ZN15QWebPreferences28setLinksIncludedInFocusChainEb@Base 5.6.0~rc
 _ZN15QWebPreferences29developerExtrasEnabledChangedEv@Base 5.0.2
 _ZN15QWebPreferences29frameFlatteningEnabledChangedEv@Base 5.0.2
 _ZN15QWebPreferences29privateBrowsingEnabledChangedEv@Base 5.0.2
 _ZN15QWebPreferences31navigatorQtObjectEnabledChangedEv@Base 5.0.2
 _ZN15QWebPreferences31spatialNavigationEnabledChangedEv@Base 5.6.0~rc
 _ZN15QWebPreferences32linksIncludedInFocusChainChangedEv@Base 5.6.0~rc
 _ZN15QWebPreferences32setFileAccessFromFileURLsAllowedEb@Base 5.2.0
 _ZN15QWebPreferences36fileAccessFromFileURLsAllowedChangedEv@Base 5.2.0
 _ZN15QWebPreferences36setOfflineWebApplicationCacheEnabledEb@Base 5.0.2
 _ZN15QWebPreferences37setUniversalAccessFromFileURLsAllowedEb@Base 5.2.0
 _ZN15QWebPreferences40offlineWebApplicationCacheEnabledChangedEv@Base 5.0.2
 _ZN15QWebPreferences41universalAccessFromFileURLsAllowedChangedEv@Base 5.2.0
 _ZN15QWebPreferencesC1Ev@Base 5.0.2
 _ZN15QWebPreferencesC2Ev@Base 5.0.2
 _ZN15QWebPreferencesD0Ev@Base 5.0.2
 _ZN15QWebPreferencesD1Ev@Base 5.0.2
 _ZN15QWebPreferencesD2Ev@Base 5.0.2
 _ZN15QWebScriptWorldC1ERKS_@Base 5.0.2
 _ZN15QWebScriptWorldC1Ev@Base 5.0.2
 _ZN15QWebScriptWorldC2ERKS_@Base 5.0.2
 _ZN15QWebScriptWorldC2Ev@Base 5.0.2
 _ZN15QWebScriptWorldD1Ev@Base 5.0.2
 _ZN15QWebScriptWorldD2Ev@Base 5.0.2
 _ZN15QWebScriptWorldaSERKS_@Base 5.0.2
 _ZN16QWebDownloadItem11qt_metacallEN11QMetaObject4CallEiPPv@Base 5.0.2
 _ZN16QWebDownloadItem11qt_metacastEPKc@Base 5.0.2
 _ZN16QWebDownloadItem16staticMetaObjectE@Base 5.0.2
 _ZN16QWebDownloadItem18setDestinationPathERK7QString@Base 5.0.2
 _ZN16QWebDownloadItem22destinationFileCreatedERK7QString@Base 5.0.2
 _ZN16QWebDownloadItem25totalBytesReceivedChangedEy@Base 5.0.2
 _ZN16QWebDownloadItem5startEv@Base 5.0.2
 _ZN16QWebDownloadItem6cancelEv@Base 5.0.2
 _ZN16QWebDownloadItem6failedENS_13DownloadErrorERK4QUrlRK7QString@Base 5.0.2
 _ZN16QWebDownloadItem9succeededEv@Base 5.0.2
 _ZN16QWebDownloadItemC1EP7QObject@Base 5.0.2
 _ZN16QWebDownloadItemC2EP7QObject@Base 5.0.2
 _ZN16QWebDownloadItemD0Ev@Base 5.0.2
 _ZN16QWebDownloadItemD1Ev@Base 5.0.2
 _ZN16QWebDownloadItemD2Ev@Base 5.0.2
 _ZN16QWebFrameAdapter10cancelLoadEv@Base 5.0.2
 _ZN16QWebFrameAdapter10setContentERK10QByteArrayRK7QStringRK4QUrl@Base 5.0.2
 _ZN16QWebFrameAdapter13setZoomFactorEd@Base 5.2.0
 _ZN16QWebFrameAdapter14clearCoreFrameEv@Base 5.0.2
 _ZN16QWebFrameAdapter14scrollToAnchorERK7QString@Base 5.0.2
 _ZN16QWebFrameAdapter15setViewportSizeERK5QSize@Base 5.0.2
 _ZN16QWebFrameAdapter17ensureAbsoluteUrlERK4QUrl@Base 5.0.2
 _ZN16QWebFrameAdapter17renderFrameExtrasERN7WebCore15GraphicsContextEiRK7QRegion@Base 5.212.0~alpha2
 _ZN16QWebFrameAdapter17setScrollBarValueEN2Qt11OrientationEi@Base 5.0.2
 _ZN16QWebFrameAdapter18evaluateJavaScriptERK7QString@Base 5.0.2
 _ZN16QWebFrameAdapter18handleGestureEventEP19QGestureEventFacade@Base 5.0.2
 _ZN16QWebFrameAdapter18setScrollBarPolicyEN2Qt11OrientationENS0_15ScrollBarPolicyE@Base 5.0.2
 _ZN16QWebFrameAdapter19setCustomLayoutSizeERK5QSize@Base 5.0.2
 _ZN16QWebFrameAdapter20renderRelativeCoordsEP8QPainteriRK7QRegion@Base 5.0.2
 _ZN16QWebFrameAdapter21_q_orientationChangedEv@Base 5.0.2
 _ZN16QWebFrameAdapter21setDelegatesScrollingEb@Base 5.0.2
 _ZN16QWebFrameAdapter21setTextSizeMultiplierEd@Base 5.2.0
 _ZN16QWebFrameAdapter22renderCompositedLayersERN7WebCore15GraphicsContextERKNS0_7IntRectE@Base 5.212.0~alpha2
 _ZN16QWebFrameAdapter23setPaintsEntireContentsEb@Base 5.0.2
 _ZN16QWebFrameAdapter26setFixedVisibleContentRectERK5QRect@Base 5.0.2
 _ZN16QWebFrameAdapter27addToJavaScriptWindowObjectERK7QStringP7QObjectNS_14ValueOwnershipE@Base 5.0.2
 _ZN16QWebFrameAdapter27updateBackgroundRecursivelyERK6QColor@Base 5.0.2
 _ZN16QWebFrameAdapter3kitEPKN7WebCore5FrameE@Base 5.0.2
 _ZN16QWebFrameAdapter4initEP15QWebPageAdapter@Base 5.0.2
 _ZN16QWebFrameAdapter4initEP15QWebPageAdapterP13QWebFrameData@Base 5.0.2
 _ZN16QWebFrameAdapter4loadERK15QNetworkRequestN21QNetworkAccessManager9OperationERK10QByteArray@Base 5.0.2
 _ZN16QWebFrameAdapter7setHtmlERK7QStringRK4QUrl@Base 5.0.2
 _ZN16QWebFrameAdapter8scrollByEii@Base 5.0.2
 _ZN16QWebFrameAdapter8setFocusEv@Base 5.0.2
 _ZN16QWebFrameAdapterC1Ev@Base 5.0.2
 _ZN16QWebFrameAdapterC2Ev@Base 5.0.2
 _ZN16QWebFrameAdapterD0Ev@Base 5.0.2
 _ZN16QWebFrameAdapterD1Ev@Base 5.0.2
 _ZN16QWebFrameAdapterD2Ev@Base 5.0.2
 _ZN16QWebSelectMethod10selectItemEibb@Base 5.212.0~alpha2
 _ZN16QWebSelectMethod11qt_metacallEN11QMetaObject4CallEiPPv@Base 5.212.0~alpha2
 _ZN16QWebSelectMethod11qt_metacastEPKc@Base 5.212.0~alpha2
 _ZN16QWebSelectMethod16staticMetaObjectE@Base 5.212.0~alpha2
 _ZN16QWebSelectMethod7didHideEv@Base 5.212.0~alpha2
 _ZN16QWebSpellChecker11qt_metacallEN11QMetaObject4CallEiPPv@Base 5.212.0~alpha2
 _ZN16QWebSpellChecker11qt_metacastEPKc@Base 5.212.0~alpha2
 _ZN16QWebSpellChecker16staticMetaObjectE@Base 5.212.0~alpha2
 _ZN17QWebPluginFactory11qt_metacallEN11QMetaObject4CallEiPPv@Base 5.0.2
 _ZN17QWebPluginFactory11qt_metacastEPKc@Base 5.0.2
 _ZN17QWebPluginFactory14refreshPluginsEv@Base 5.0.2
 _ZN17QWebPluginFactory16staticMetaObjectE@Base 5.0.2
 _ZN17QWebPluginFactory9extensionENS_9ExtensionEPKNS_15ExtensionOptionEPNS_15ExtensionReturnE@Base 5.0.2
 _ZN17QWebPluginFactoryC1EP7QObject@Base 5.0.2
 _ZN17QWebPluginFactoryC2EP7QObject@Base 5.0.2
 _ZN17QWebPluginFactoryD0Ev@Base 5.0.2
 _ZN17QWebPluginFactoryD1Ev@Base 5.0.2
 _ZN17QWebPluginFactoryD2Ev@Base 5.0.2
 _ZN17QWebTouchModifier11qt_metacallEN11QMetaObject4CallEiPPv@Base 5.212.0~alpha2
 _ZN17QWebTouchModifier11qt_metacastEPKc@Base 5.212.0~alpha2
 _ZN17QWebTouchModifier16staticMetaObjectE@Base 5.212.0~alpha2
 _ZN18QQuickNetworkReply11qt_metacallEN11QMetaObject4CallEiPPv@Base 5.0.2
 _ZN18QQuickNetworkReply11qt_metacastEPKc@Base 5.0.2
 _ZN18QQuickNetworkReply14setContentTypeERK7QString@Base 5.0.2
 _ZN18QQuickNetworkReply16staticMetaObjectE@Base 5.0.2
 _ZN18QQuickNetworkReply21setNetworkRequestDataEN3WTF10PassRefPtrIN6WebKit30QtRefCountedNetworkRequestDataEEE@Base 5.0.2
 _ZN18QQuickNetworkReply22setWebViewExperimentalEP25QQuickWebViewExperimental@Base 5.0.2
 _ZN18QQuickNetworkReply4sendEv@Base 5.0.2
 _ZN18QQuickNetworkReply7setDataERK8QVariant@Base 5.0.2
 _ZN18QQuickNetworkReplyC1EP7QObject@Base 5.0.2
 _ZN18QQuickNetworkReplyC2EP7QObject@Base 5.0.2
 _ZN18QWebPluginDatabase11qt_metacallEN11QMetaObject4CallEiPPv@Base 5.0.2
 _ZN18QWebPluginDatabase11qt_metacastEPKc@Base 5.0.2
 _ZN18QWebPluginDatabase16staticMetaObjectE@Base 5.0.2
 _ZN18QWebPluginDatabase17pluginForMimeTypeERK7QString@Base 5.0.2
 _ZN18QWebPluginDatabase29setPreferredPluginForMimeTypeERK7QStringRK14QWebPluginInfo@Base 5.0.2
 _ZN18QWebPluginDatabase7refreshEv@Base 5.0.2
 _ZN18QWebPluginDatabaseC1EP7QObject@Base 5.0.2
 _ZN18QWebPluginDatabaseC2EP7QObject@Base 5.0.2
 _ZN18QWebPluginDatabaseD0Ev@Base 5.0.2
 _ZN18QWebPluginDatabaseD1Ev@Base 5.0.2
 _ZN18QWebPluginDatabaseD2Ev@Base 5.0.2
 _ZN18QWebSecurityOrigin10allOriginsEv@Base 5.0.2
 _ZN18QWebSecurityOrigin12localSchemesEv@Base 5.0.2
 _ZN18QWebSecurityOrigin14addLocalSchemeERK7QString@Base 5.0.2
 _ZN18QWebSecurityOrigin16setDatabaseQuotaEx@Base 5.0.2
 _ZN18QWebSecurityOrigin17removeLocalSchemeERK7QString@Base 5.0.2
 _ZN18QWebSecurityOrigin23addAccessWhitelistEntryERK7QStringS2_NS_16SubdomainSettingE@Base 5.2.0
 _ZN18QWebSecurityOrigin24setApplicationCacheQuotaEx@Base 5.0.2
 _ZN18QWebSecurityOrigin26removeAccessWhitelistEntryERK7QStringS2_NS_16SubdomainSettingE@Base 5.2.0
 _ZN18QWebSecurityOriginC1EP25QWebSecurityOriginPrivate@Base 5.0.2
 _ZN18QWebSecurityOriginC1ERK4QUrl@Base 5.2.0
 _ZN18QWebSecurityOriginC1ERKS_@Base 5.0.2
 _ZN18QWebSecurityOriginC2EP25QWebSecurityOriginPrivate@Base 5.0.2
 _ZN18QWebSecurityOriginC2ERK4QUrl@Base 5.2.0
 _ZN18QWebSecurityOriginC2ERKS_@Base 5.0.2
 _ZN18QWebSecurityOriginD1Ev@Base 5.0.2
 _ZN18QWebSecurityOriginD2Ev@Base 5.0.2
 _ZN18QWebSecurityOriginaSERKS_@Base 5.0.2
 _ZN19QtWebSecurityOrigin11qt_metacallEN11QMetaObject4CallEiPPv@Base 5.0.2
 _ZN19QtWebSecurityOrigin11qt_metacastEPKc@Base 5.0.2
 _ZN19QtWebSecurityOrigin16staticMetaObjectE@Base 5.0.2
 _ZN19QtWebSecurityOriginC1EP7QObject@Base 5.0.2
 _ZN19QtWebSecurityOriginC2EP7QObject@Base 5.0.2
 _ZN19QtWebSecurityOriginD0Ev@Base 5.0.2
 _ZN19QtWebSecurityOriginD1Ev@Base 5.0.2
 _ZN19QtWebSecurityOriginD2Ev@Base 5.0.2
 _ZN20QQuickNetworkRequest11qt_metacallEN11QMetaObject4CallEiPPv@Base 5.0.2
 _ZN20QQuickNetworkRequest11qt_metacastEPKc@Base 5.0.2
 _ZN20QQuickNetworkRequest16staticMetaObjectE@Base 5.0.2
 _ZN20QQuickNetworkRequest21setNetworkRequestDataEN3WTF10PassRefPtrIN6WebKit30QtRefCountedNetworkRequestDataEEE@Base 5.0.2
 _ZN20QQuickNetworkRequestC1EP7QObject@Base 5.0.2
 _ZN20QQuickNetworkRequestC2EP7QObject@Base 5.0.2
 _ZN20QWebHistoryInterface11qt_metacallEN11QMetaObject4CallEiPPv@Base 5.0.2
 _ZN20QWebHistoryInterface11qt_metacastEPKc@Base 5.0.2
 _ZN20QWebHistoryInterface16defaultInterfaceEv@Base 5.0.2
 _ZN20QWebHistoryInterface16staticMetaObjectE@Base 5.0.2
 _ZN20QWebHistoryInterface19setDefaultInterfaceEPS_@Base 5.0.2
 _ZN20QWebHistoryInterfaceC1EP7QObject@Base 5.0.2
 _ZN20QWebHistoryInterfaceC2EP7QObject@Base 5.0.2
 _ZN20QWebHistoryInterfaceD0Ev@Base 5.0.2
 _ZN20QWebHistoryInterfaceD1Ev@Base 5.0.2
 _ZN20QWebHistoryInterfaceD2Ev@Base 5.0.2
 _ZN21QQuickWebViewAttached11qt_metacallEN11QMetaObject4CallEiPPv@Base 5.0.2
 _ZN21QQuickWebViewAttached11qt_metacastEPKc@Base 5.0.2
 _ZN21QQuickWebViewAttached11viewChangedEv@Base 5.0.2
 _ZN21QQuickWebViewAttached16staticMetaObjectE@Base 5.0.2
 _ZN21QQuickWebViewAttached7setViewEP13QQuickWebView@Base 5.0.2
 _ZN21QQuickWebViewAttachedC1EP7QObject@Base 5.0.2
 _ZN21QQuickWebViewAttachedC2EP7QObject@Base 5.0.2
 _ZN21QWebElementCollection6appendERKS_@Base 5.0.2
 _ZN21QWebElementCollectionC1ERK11QWebElementRK7QString@Base 5.0.2
 _ZN21QWebElementCollectionC1ERKS_@Base 5.0.2
 _ZN21QWebElementCollectionC1Ev@Base 5.0.2
 _ZN21QWebElementCollectionC2ERK11QWebElementRK7QString@Base 5.0.2
 _ZN21QWebElementCollectionC2ERKS_@Base 5.0.2
 _ZN21QWebElementCollectionC2Ev@Base 5.0.2
 _ZN21QWebElementCollectionD1Ev@Base 5.0.2
 _ZN21QWebElementCollectionD2Ev@Base 5.0.2
 _ZN21QWebElementCollectionaSERKS_@Base 5.0.2
 _ZN21QWebFullScreenRequest6acceptEv@Base 5.212.0~alpha2
 _ZN21QWebFullScreenRequest6rejectEv@Base 5.212.0~alpha2
 _ZN21QWebFullScreenRequestC1EP15QWebPageAdapterRK11QWebElementb@Base 5.212.0~alpha2
 _ZN21QWebFullScreenRequestC1ERKS_@Base 5.212.0~alpha2
 _ZN21QWebFullScreenRequestC1Ev@Base 5.212.0~alpha2
 _ZN21QWebFullScreenRequestC2EP15QWebPageAdapterRK11QWebElementb@Base 5.212.0~alpha2
 _ZN21QWebFullScreenRequestC2ERKS_@Base 5.212.0~alpha2
 _ZN21QWebFullScreenRequestC2Ev@Base 5.212.0~alpha2
 _ZN21QWebFullScreenRequestD1Ev@Base 5.212.0~alpha2
 _ZN21QWebFullScreenRequestD2Ev@Base 5.212.0~alpha2
 _ZN21QWebIconImageProvider12requestImageERK7QStringP5QSizeRKS3_@Base 5.0.2
 _ZN21QWebIconImageProvider26iconURLForPageURLInContextERK7QStringPN6WebKit12QtWebContextE@Base 5.2.0
 _ZN21QWebIconImageProviderC1Ev@Base 5.0.2
 _ZN21QWebIconImageProviderC2Ev@Base 5.0.2
 _ZN21QWebIconImageProviderD0Ev@Base 5.0.2
 _ZN21QWebIconImageProviderD1Ev@Base 5.0.2
 _ZN21QWebIconImageProviderD2Ev@Base 5.0.2
 _ZN21QWebNavigationHistory11qt_metacallEN11QMetaObject4CallEiPPv@Base 5.0.2
 _ZN21QWebNavigationHistory11qt_metacastEPKc@Base 5.0.2
 _ZN21QWebNavigationHistory16staticMetaObjectE@Base 5.0.2
 _ZN21QWebNavigationHistoryC1Ev@Base 5.0.2
 _ZN21QWebNavigationHistoryC2Ev@Base 5.0.2
 _ZN21QWebNavigationHistoryD0Ev@Base 5.0.2
 _ZN21QWebNavigationHistoryD1Ev@Base 5.0.2
 _ZN21QWebNavigationHistoryD2Ev@Base 5.0.2
 _ZN21QWebNavigationRequest11qt_metacallEN11QMetaObject4CallEiPPv@Base 5.0.2
 _ZN21QWebNavigationRequest11qt_metacastEPKc@Base 5.0.2
 _ZN21QWebNavigationRequest13actionChangedEv@Base 5.0.2
 _ZN21QWebNavigationRequest16staticMetaObjectE@Base 5.0.2
 _ZN21QWebNavigationRequest9setActionEN13QQuickWebView23NavigationRequestActionE@Base 5.0.2
 _ZN21QWebNavigationRequestC1ERK4QUrlN2Qt11MouseButtonE6QFlagsINS3_16KeyboardModifierEEN13QQuickWebView14NavigationTypeEbP7QObject@Base 5.212.0~alpha2
 _ZN21QWebNavigationRequestC2ERK4QUrlN2Qt11MouseButtonE6QFlagsINS3_16KeyboardModifierEEN13QQuickWebView14NavigationTypeEbP7QObject@Base 5.212.0~alpha2
 _ZN21QWebNavigationRequestD0Ev@Base 5.0.2
 _ZN21QWebNavigationRequestD1Ev@Base 5.0.2
 _ZN21QWebNavigationRequestD2Ev@Base 5.0.2
 _ZN21QWebPermissionRequest11qt_metacallEN11QMetaObject4CallEiPPv@Base 5.0.2
 _ZN21QWebPermissionRequest11qt_metacastEPKc@Base 5.0.2
 _ZN21QWebPermissionRequest14securityOriginEv@Base 5.0.2
 _ZN21QWebPermissionRequest16staticMetaObjectE@Base 5.0.2
 _ZN21QWebPermissionRequest6createEPK22OpaqueWKSecurityOriginPK36OpaqueWKGeolocationPermissionRequest@Base 5.0.2
 _ZN21QWebPermissionRequest6createEPK22OpaqueWKSecurityOriginPK37OpaqueWKNotificationPermissionRequest@Base 5.0.2
 _ZN21QWebPermissionRequest8setAllowEb@Base 5.0.2
 _ZN21QWebPermissionRequestC1EPK22OpaqueWKSecurityOriginPK36OpaqueWKGeolocationPermissionRequestPK37OpaqueWKNotificationPermissionRequestNS_11RequestTypeEP7QObject@Base 5.0.2
 _ZN21QWebPermissionRequestC2EPK22OpaqueWKSecurityOriginPK36OpaqueWKGeolocationPermissionRequestPK37OpaqueWKNotificationPermissionRequestNS_11RequestTypeEP7QObject@Base 5.0.2
 _ZN21QWebPermissionRequestD0Ev@Base 5.0.2
 _ZN21QWebPermissionRequestD1Ev@Base 5.0.2
 _ZN21QWebPermissionRequestD2Ev@Base 5.0.2
 _ZN21QtPluginWidgetAdapter11qt_metacallEN11QMetaObject4CallEiPPv@Base 5.0.2
 _ZN21QtPluginWidgetAdapter11qt_metacastEPKc@Base 5.0.2
 _ZN21QtPluginWidgetAdapter16staticMetaObjectE@Base 5.0.2
 _ZN21QtPluginWidgetAdapterC1Ev@Base 5.0.2
 _ZN21QtPluginWidgetAdapterC2Ev@Base 5.0.2
 _ZN22QWebHistoryItemPrivate4coreEPK15QWebHistoryItem@Base 5.0.2
 _ZN23QQuickUrlSchemeDelegate11qt_metacallEN11QMetaObject4CallEiPPv@Base 5.0.2
 _ZN23QQuickUrlSchemeDelegate11qt_metacastEPKc@Base 5.0.2
 _ZN23QQuickUrlSchemeDelegate13schemeChangedEv@Base 5.0.2
 _ZN23QQuickUrlSchemeDelegate15receivedRequestEv@Base 5.0.2
 _ZN23QQuickUrlSchemeDelegate16staticMetaObjectE@Base 5.0.2
 _ZN23QQuickUrlSchemeDelegate9setSchemeERK7QString@Base 5.0.2
 _ZN23QQuickUrlSchemeDelegateC1EP7QObject@Base 5.0.2
 _ZN23QQuickUrlSchemeDelegateC2EP7QObject@Base 5.0.2
 _ZN23QWebNavigationListModel11qt_metacallEN11QMetaObject4CallEiPPv@Base 5.0.2
 _ZN23QWebNavigationListModel11qt_metacastEPKc@Base 5.0.2
 _ZN23QWebNavigationListModel16staticMetaObjectE@Base 5.0.2
 _ZN23QWebNavigationListModel5resetEv@Base 5.0.2
 _ZN23QWebNavigationListModelD0Ev@Base 5.0.2
 _ZN23QWebNavigationListModelD1Ev@Base 5.0.2
 _ZN23QWebNavigationListModelD2Ev@Base 5.0.2
 _ZN24QWebHapticFeedbackPlayer11qt_metacallEN11QMetaObject4CallEiPPv@Base 5.212.0~alpha2
 _ZN24QWebHapticFeedbackPlayer11qt_metacastEPKc@Base 5.212.0~alpha2
 _ZN24QWebHapticFeedbackPlayer16staticMetaObjectE@Base 5.212.0~alpha2
 _ZN24QWebHitTestResultPrivateC1ERKN7WebCore13HitTestResultE@Base 5.0.2
 _ZN24QWebHitTestResultPrivateC1ERKS_@Base 5.0.2
 _ZN24QWebHitTestResultPrivateC2ERKN7WebCore13HitTestResultE@Base 5.0.2
 _ZN24QWebHitTestResultPrivateC2ERKS_@Base 5.0.2
 _ZN24QWebHitTestResultPrivateD1Ev@Base 5.0.2
 _ZN24QWebHitTestResultPrivateD2Ev@Base 5.0.2
 _ZN24QWebHitTestResultPrivateaSERKS_@Base 5.0.2
 _ZN25QQuickWebViewExperimental11goForwardToEi@Base 5.0.2
 _ZN25QQuickWebViewExperimental11postMessageERK7QString@Base 5.0.2
 _ZN25QQuickWebViewExperimental11qt_metacallEN11QMetaObject4CallEiPPv@Base 5.0.2
 _ZN25QQuickWebViewExperimental11qt_metacastEPKc@Base 5.0.2
 _ZN25QQuickWebViewExperimental12setUserAgentERK7QString@Base 5.0.2
 _ZN25QQuickWebViewExperimental13setFilePickerEP13QQmlComponent@Base 5.0.2
 _ZN25QQuickWebViewExperimental13setWebChannelEP14QQmlWebChannel@Base 5.212.0~alpha2
 _ZN25QQuickWebViewExperimental14setAlertDialogEP13QQmlComponent@Base 5.0.2
 _ZN25QQuickWebViewExperimental14setDeviceWidthEi@Base 5.0.2
 _ZN25QQuickWebViewExperimental14setUserScriptsERK5QListI4QUrlE@Base 5.0.2
 _ZN25QQuickWebViewExperimental15messageReceivedERK4QMapI7QString8QVariantE@Base 5.0.2
 _ZN25QQuickWebViewExperimental15processDidCrashEv@Base 5.2.0
 _ZN25QQuickWebViewExperimental15schemeDelegatesEv@Base 5.0.2
 _ZN25QQuickWebViewExperimental15setColorChooserEP13QQmlComponent@Base 5.0.2
 _ZN25QQuickWebViewExperimental15setDeviceHeightEi@Base 5.0.2
 _ZN25QQuickWebViewExperimental15setItemSelectorEP13QQmlComponent@Base 5.0.2
 _ZN25QQuickWebViewExperimental15setPromptDialogEP13QQmlComponent@Base 5.0.2
 _ZN25QQuickWebViewExperimental16setConfirmDialogEP13QQmlComponent@Base 5.0.2
 _ZN25QQuickWebViewExperimental16staticMetaObjectE@Base 5.0.2
 _ZN25QQuickWebViewExperimental16userAgentChangedEv@Base 5.0.2
 _ZN25QQuickWebViewExperimental17downloadRequestedEP16QWebDownloadItem@Base 5.0.2
 _ZN25QQuickWebViewExperimental17filePickerChangedEv@Base 5.0.2
 _ZN25QQuickWebViewExperimental17webChannelChangedEP14QQmlWebChannel@Base 5.212.0~alpha2
 _ZN25QQuickWebViewExperimental18alertDialogChangedEv@Base 5.0.2
 _ZN25QQuickWebViewExperimental18deviceWidthChangedEv@Base 5.0.2
 _ZN25QQuickWebViewExperimental18didRelaunchProcessEv@Base 5.2.0
 _ZN25QQuickWebViewExperimental18evaluateJavaScriptERK7QStringRK8QJSValue@Base 5.0.2
 _ZN25QQuickWebViewExperimental18schemeDelegates_AtEP16QQmlListPropertyI23QQuickUrlSchemeDelegateEi@Base 5.0.2
 _ZN25QQuickWebViewExperimental18setUserStyleSheetsERK5QListI4QUrlE@Base 5.6.0~rc
 _ZN25QQuickWebViewExperimental18userScriptsChangedEv@Base 5.0.2
 _ZN25QQuickWebViewExperimental19colorChooserChangedEv@Base 5.0.2
 _ZN25QQuickWebViewExperimental19deviceHeightChangedEv@Base 5.0.2
 _ZN25QQuickWebViewExperimental19itemSelectorChangedEv@Base 5.0.2
 _ZN25QQuickWebViewExperimental19permissionRequestedEP21QWebPermissionRequest@Base 5.0.2
 _ZN25QQuickWebViewExperimental19promptDialogChangedEv@Base 5.0.2
 _ZN25QQuickWebViewExperimental20confirmDialogChangedEv@Base 5.0.2
 _ZN25QQuickWebViewExperimental21loadVisuallyCommittedEv@Base 5.0.2
 _ZN25QQuickWebViewExperimental21schemeDelegates_ClearEP16QQmlListPropertyI23QQuickUrlSchemeDelegateE@Base 5.0.2
 _ZN25QQuickWebViewExperimental21schemeDelegates_CountEP16QQmlListPropertyI23QQuickUrlSchemeDelegateE@Base 5.0.2
 _ZN25QQuickWebViewExperimental22schemeDelegates_AppendEP16QQmlListPropertyI23QQuickUrlSchemeDelegateEPS1_@Base 5.0.2
 _ZN25QQuickWebViewExperimental22setDatabaseQuotaDialogEP13QQmlComponent@Base 5.0.2
 _ZN25QQuickWebViewExperimental22userStyleSheetsChangedEv@Base 5.6.0~rc
 _ZN25QQuickWebViewExperimental23exitFullScreenRequestedEv@Base 5.0.2
 _ZN25QQuickWebViewExperimental23setAuthenticationDialogEP13QQmlComponent@Base 5.0.2
 _ZN25QQuickWebViewExperimental24enterFullScreenRequestedEv@Base 5.0.2
 _ZN25QQuickWebViewExperimental24flickableViewportEnabledEv@Base 5.0.2
 _ZN25QQuickWebViewExperimental24setTransparentBackgroundEb@Base 5.0.2
 _ZN25QQuickWebViewExperimental25remoteInspectorUrlChangedEv@Base 5.0.2
 _ZN25QQuickWebViewExperimental26databaseQuotaDialogChangedEv@Base 5.0.2
 _ZN25QQuickWebViewExperimental26processDidBecomeResponsiveEv@Base 5.2.0
 _ZN25QQuickWebViewExperimental26sendApplicationSchemeReplyEP18QQuickNetworkReply@Base 5.0.2
 _ZN25QQuickWebViewExperimental26setRenderToOffscreenBufferEb@Base 5.0.2
 _ZN25QQuickWebViewExperimental27authenticationDialogChangedEv@Base 5.0.2
 _ZN25QQuickWebViewExperimental27setFlickableViewportEnabledEb@Base 5.0.2
 _ZN25QQuickWebViewExperimental28processDidBecomeUnresponsiveEv@Base 5.2.0
 _ZN25QQuickWebViewExperimental28setProxyAuthenticationDialogEP13QQmlComponent@Base 5.0.2
 _ZN25QQuickWebViewExperimental28setUseDefaultContentItemSizeEb@Base 5.0.2
 _ZN25QQuickWebViewExperimental30invokeApplicationSchemeHandlerEN3WTF10PassRefPtrIN6WebKit30QtRefCountedNetworkRequestDataEEE@Base 5.0.2
 _ZN25QQuickWebViewExperimental32postQtWebChannelTransportMessageERK10QByteArray@Base 5.212.0~alpha2
 _ZN25QQuickWebViewExperimental32proxyAuthenticationDialogChangedEv@Base 5.0.2
 _ZN25QQuickWebViewExperimental32setCertificateVerificationDialogEP13QQmlComponent@Base 5.0.2
 _ZN25QQuickWebViewExperimental32setPreferredMinimumContentsWidthEi@Base 5.0.2
 _ZN25QQuickWebViewExperimental36certificateVerificationDialogChangedEv@Base 5.0.2
 _ZN25QQuickWebViewExperimental36preferredMinimumContentsWidthChangedEv@Base 5.0.2
 _ZN25QQuickWebViewExperimental4pageEv@Base 5.0.2
 _ZN25QQuickWebViewExperimental4testEv@Base 5.0.2
 _ZN25QQuickWebViewExperimental8findTextERK7QString6QFlagsINS_8FindFlagEE@Base 5.2.0
 _ZN25QQuickWebViewExperimental8goBackToEi@Base 5.0.2
 _ZN25QQuickWebViewExperimental9textFoundEi@Base 5.2.0
 _ZN25QQuickWebViewExperimentalC1EP13QQuickWebViewP20QQuickWebViewPrivate@Base 5.0.2
 _ZN25QQuickWebViewExperimentalC2EP13QQuickWebViewP20QQuickWebViewPrivate@Base 5.0.2
 _ZN25QQuickWebViewExperimentalD0Ev@Base 5.0.2
 _ZN25QQuickWebViewExperimentalD1Ev@Base 5.0.2
 _ZN25QQuickWebViewExperimentalD2Ev@Base 5.0.2
 _ZN25QWebNotificationPresenter11qt_metacallEN11QMetaObject4CallEiPPv@Base 5.212.0~alpha2
 _ZN25QWebNotificationPresenter11qt_metacastEPKc@Base 5.212.0~alpha2
 _ZN25QWebNotificationPresenter16staticMetaObjectE@Base 5.212.0~alpha2
 _ZN25QWebNotificationPresenter18notificationClosedEv@Base 5.212.0~alpha2
 _ZN25QWebNotificationPresenter19notificationClickedEv@Base 5.212.0~alpha2
 _ZN6WebKit16WebProcessMainQtEP15QGuiApplication@Base 5.0.2
 _ZN6WebKit18initializeWebKitQtEv@Base 5.0.2
 _ZN6WebKit20NetworkProcessMainQtEiPPc@Base 5.212.0~alpha2
 _ZN6WebKit21DatabaseProcessMainQtEiPPc@Base 5.212.0~alpha2
 _ZN6WebKit24setImagePlatformResourceEPKcRK7QPixmap@Base 5.0.2
 _ZN6WebKit28setWebKitWidgetsInitCallbackEPFPN7WebCore12QStyleFacadeEP15QWebPageAdapterE@Base 5.0.2
 _ZN7WebCore19initializeWebCoreQtEv@Base 5.0.2
 (optional=templinst|arch=powerpc powerpcspe x32)_ZN9__gnu_cxx12__to_xstringINSt7__cxx1112basic_stringIcSt11char_traitsIcESaIcEEEcEET_PFiPT0_jPKS8_P13__va_list_tagEjSB_z@Base 5.212.0~alpha2
 (optional=templinst|arch=amd64 kfreebsd-amd64 s390x)_ZN9__gnu_cxx12__to_xstringINSt7__cxx1112basic_stringIcSt11char_traitsIcESaIcEEEcEET_PFiPT0_mPKS8_P13__va_list_tagEmSB_z@Base 5.212.0~alpha2
 (optional=templinst|arch=alpha sh4|subst)_ZN9__gnu_cxx12__to_xstringINSt7__cxx1112basic_stringIcSt11char_traitsIcESaIcEEEcEET_PFiPT0_{size_t}PKS8_13__va_list_tagE{size_t}SB_z@Base 5.212.0~alpha2
 (optional=templinst|arch=hurd-i386 i386 kfreebsd-i386 ppc64 ppc64el|subst)_ZN9__gnu_cxx12__to_xstringINSt7__cxx1112basic_stringIcSt11char_traitsIcESaIcEEEcEET_PFiPT0_{size_t}PKS8_PcE{size_t}SB_z@Base 5.212.0~alpha2
 (optional=templinst|arch=hppa mips mips64el mipsel|subst)_ZN9__gnu_cxx12__to_xstringINSt7__cxx1112basic_stringIcSt11char_traitsIcESaIcEEEcEET_PFiPT0_{size_t}PKS8_PvE{size_t}SB_z@Base 5.212.0~alpha2
 (optional=templinst|arch=arm64 armel armhf|subst)_ZN9__gnu_cxx12__to_xstringINSt7__cxx1112basic_stringIcSt11char_traitsIcESaIcEEEcEET_PFiPT0_{size_t}PKS8_St9__va_listE{size_t}SB_z@Base 5.212.0~alpha2
 _ZNK10UndoStepQt4textEv@Base 5.0.2
 _ZNK11QWebElement10firstChildEv@Base 5.0.2
 _ZNK11QWebElement10toInnerXmlEv@Base 5.0.2
 _ZNK11QWebElement10toOuterXmlEv@Base 5.0.2
 _ZNK11QWebElement11attributeNSERK7QStringS2_S2_@Base 5.0.2
 _ZNK11QWebElement11nextSiblingEv@Base 5.0.2
 _ZNK11QWebElement11toPlainTextEv@Base 5.0.2
 _ZNK11QWebElement12hasAttributeERK7QString@Base 5.0.2
 _ZNK11QWebElement12namespaceUriEv@Base 5.0.2
 _ZNK11QWebElement13hasAttributesEv@Base 5.0.2
 _ZNK11QWebElement13stylePropertyERK7QStringNS_20StyleResolveStrategyE@Base 5.0.2
 _ZNK11QWebElement14attributeNamesERK7QString@Base 5.0.2
 _ZNK11QWebElement14hasAttributeNSERK7QStringS2_@Base 5.0.2
 _ZNK11QWebElement15previousSiblingEv@Base 5.0.2
 _ZNK11QWebElement5cloneEv@Base 5.0.2
 _ZNK11QWebElement6isNullEv@Base 5.0.2
 _ZNK11QWebElement6parentEv@Base 5.0.2
 _ZNK11QWebElement6prefixEv@Base 5.0.2
 _ZNK11QWebElement7classesEv@Base 5.0.2
 _ZNK11QWebElement7findAllERK7QString@Base 5.0.2
 _ZNK11QWebElement7tagNameEv@Base 5.0.2
 _ZNK11QWebElement8documentEv@Base 5.0.2
 _ZNK11QWebElement8geometryEv@Base 5.0.2
 _ZNK11QWebElement8hasClassERK7QString@Base 5.0.2
 _ZNK11QWebElement8hasFocusEv@Base 5.0.2
 _ZNK11QWebElement8webFrameEv@Base 5.0.2
 _ZNK11QWebElement9attributeERK7QStringS2_@Base 5.0.2
 _ZNK11QWebElement9findFirstERK7QString@Base 5.0.2
 _ZNK11QWebElement9lastChildEv@Base 5.0.2
 _ZNK11QWebElement9localNameEv@Base 5.0.2
 _ZNK11QWebElementeqERKS_@Base 5.0.2
 _ZNK11QWebElementneERKS_@Base 5.0.2
 _ZNK11QWebHistory11currentItemEv@Base 5.0.2
 _ZNK11QWebHistory11forwardItemEv@Base 5.0.2
 _ZNK11QWebHistory12canGoForwardEv@Base 5.0.2
 _ZNK11QWebHistory12forwardItemsEi@Base 5.0.2
 _ZNK11QWebHistory16currentItemIndexEv@Base 5.0.2
 _ZNK11QWebHistory16maximumItemCountEv@Base 5.0.2
 _ZNK11QWebHistory5countEv@Base 5.0.2
 _ZNK11QWebHistory5itemsEv@Base 5.0.2
 _ZNK11QWebHistory5toMapEv@Base 5.212.0~alpha2
 _ZNK11QWebHistory6itemAtEi@Base 5.0.2
 _ZNK11QWebHistory8backItemEv@Base 5.0.2
 _ZNK11QWebHistory9backItemsEi@Base 5.0.2
 _ZNK11QWebHistory9canGoBackEv@Base 5.0.2
 _ZNK11QWebKitTest10metaObjectEv@Base 5.0.2
 _ZNK11QWebKitTest12contentsSizeEv@Base 5.0.2
 _ZNK11QWebKitTest13contentsScaleEv@Base 5.0.2
 _ZNK11QWebKitTest16devicePixelRatioEv@Base 5.0.2
 _ZNK11QWebKitTest8viewportEv@Base 5.0.2
 _ZNK12QWebDatabase11displayNameEv@Base 5.0.2
 _ZNK12QWebDatabase12expectedSizeEv@Base 5.0.2
 _ZNK12QWebDatabase4nameEv@Base 5.0.2
 _ZNK12QWebDatabase4sizeEv@Base 5.0.2
 _ZNK12QWebDatabase6originEv@Base 5.0.2
 _ZNK12QWebDatabase8fileNameEv@Base 5.0.2
 _ZNK12QWebSettings10fontFamilyENS_10FontFamilyE@Base 5.0.2
 _ZNK12QWebSettings12cssMediaTypeEv@Base 5.2.0
 _ZNK12QWebSettings13testAttributeENS_12WebAttributeE@Base 5.0.2
 _ZNK12QWebSettings16localStoragePathEv@Base 5.0.2
 _ZNK12QWebSettings17userStyleSheetUrlEv@Base 5.0.2
 _ZNK12QWebSettings19defaultTextEncodingEv@Base 5.0.2
 _ZNK12QWebSettings22thirdPartyCookiePolicyEv@Base 5.0.2
 _ZNK12QWebSettings8fontSizeENS_8FontSizeE@Base 5.0.2
 _ZNK13QQuickWebPage10metaObjectEv@Base 5.0.2
 _ZNK13QQuickWebPage12contentsSizeEv@Base 5.0.2
 _ZNK13QQuickWebPage13contentsScaleEv@Base 5.0.2
 _ZNK13QQuickWebPage15transformToItemEv@Base 5.0.2
 _ZNK13QQuickWebPage17transformFromItemEv@Base 5.0.2
 _ZNK13QQuickWebView10contentPosEv@Base 5.0.2
 _ZNK13QQuickWebView10metaObjectEv@Base 5.0.2
 _ZNK13QQuickWebView10zoomFactorEv@Base 5.0.2
 _ZNK13QQuickWebView12canGoForwardEv@Base 5.0.2
 _ZNK13QQuickWebView12experimentalEv@Base 5.0.2
 _ZNK13QQuickWebView12loadProgressEv@Base 5.0.2
 _ZNK13QQuickWebView15mapToWebContentERK7QPointF@Base 5.0.2
 _ZNK13QQuickWebView16inputMethodQueryEN2Qt16InputMethodQueryE@Base 5.0.2
 _ZNK13QQuickWebView17mapFromWebContentERK7QPointF@Base 5.0.2
 _ZNK13QQuickWebView19mapRectToWebContentERK6QRectF@Base 5.0.2
 _ZNK13QQuickWebView21mapRectFromWebContentERK6QRectF@Base 5.0.2
 _ZNK13QQuickWebView36allowAnyHTTPSCertificateForLocalHostEv@Base 5.0.2
 _ZNK13QQuickWebView3urlEv@Base 5.0.2
 _ZNK13QQuickWebView4iconEv@Base 5.0.2
 _ZNK13QQuickWebView5titleEv@Base 5.0.2
 _ZNK13QQuickWebView7loadingEv@Base 5.0.2
 _ZNK13QQuickWebView7pageRefEv@Base 5.0.2
 _ZNK13QQuickWebView9canGoBackEv@Base 5.0.2
 _ZNK14QWebPluginInfo11descriptionEv@Base 5.0.2
 _ZNK14QWebPluginInfo16supportsMimeTypeERK7QString@Base 5.0.2
 _ZNK14QWebPluginInfo4nameEv@Base 5.0.2
 _ZNK14QWebPluginInfo4pathEv@Base 5.0.2
 _ZNK14QWebPluginInfo6isNullEv@Base 5.0.2
 _ZNK14QWebPluginInfo9isEnabledEv@Base 5.0.2
 _ZNK14QWebPluginInfo9mimeTypesEv@Base 5.0.2
 _ZNK14QWebPluginInfoeqERKS_@Base 5.0.2
 _ZNK14QWebPluginInfoneERKS_@Base 5.0.2
 _ZNK14QtPrintContext9pageCountEv@Base 5.0.2
 _ZNK15QWebHistoryItem11lastVisitedEv@Base 5.0.2
 _ZNK15QWebHistoryItem11originalUrlEv@Base 5.0.2
 _ZNK15QWebHistoryItem3urlEv@Base 5.0.2
 _ZNK15QWebHistoryItem4iconEv@Base 5.0.2
 _ZNK15QWebHistoryItem5titleEv@Base 5.0.2
 _ZNK15QWebHistoryItem5toMapEv@Base 5.212.0~alpha2
 _ZNK15QWebHistoryItem7isValidEv@Base 5.0.2
 _ZNK15QWebHistoryItem8userDataEv@Base 5.0.2
 _ZNK15QWebLoadRequest10metaObjectEv@Base 5.0.2
 _ZNK15QWebLoadRequest11errorDomainEv@Base 5.0.2
 _ZNK15QWebLoadRequest11errorStringEv@Base 5.0.2
 _ZNK15QWebLoadRequest3urlEv@Base 5.0.2
 _ZNK15QWebLoadRequest6statusEv@Base 5.0.2
 _ZNK15QWebLoadRequest9errorCodeEv@Base 5.0.2
 _ZNK15QWebPageAdapter12currentFrameEv@Base 5.0.2
 _ZNK15QWebPageAdapter12hasSelectionEv@Base 5.0.2
 _ZNK15QWebPageAdapter12selectedHtmlEv@Base 5.0.2
 _ZNK15QWebPageAdapter12selectedTextEv@Base 5.0.2
 _ZNK15QWebPageAdapter14hasFocusedNodeEv@Base 5.0.2
 _ZNK15QWebPageAdapter14isPlayingAudioEv@Base 5.212.0~alpha2
 _ZNK15QWebPageAdapter15visibilityStateEv@Base 5.2.0
 _ZNK15QWebPageAdapter16inputMethodQueryEN2Qt16InputMethodQueryE@Base 5.0.2
 _ZNK15QWebPageAdapter17fullScreenElementEv@Base 5.212.0~alpha2
 _ZNK15QWebPageAdapter17hasSystemTrayIconEv@Base 5.0.2
 _ZNK15QWebPageAdapter17isContentEditableEv@Base 5.0.2
 _ZNK15QWebPageAdapter17viewportArgumentsEv@Base 5.0.2
 _ZNK15QWebPageAdapter19supportsContentTypeERK7QString@Base 5.0.2
 _ZNK15QWebPageAdapter21supportedContentTypesEv@Base 5.0.2
 _ZNK15QWebPageAdapter25viewportAttributesForSizeERK5QSizeS2_@Base 5.0.2
 _ZNK15QWebPageAdapter27contextMenuItemTagForActionENS_10MenuActionEPb@Base 5.0.2
 _ZNK15QWebPreferences10metaObjectEv@Base 5.0.2
 _ZNK15QWebPreferences12webGLEnabledEv@Base 5.0.2
 _ZNK15QWebPreferences14autoLoadImagesEv@Base 5.0.2
 _ZNK15QWebPreferences14pluginsEnabledEv@Base 5.0.2
 _ZNK15QWebPreferences15defaultFontSizeEv@Base 5.0.2
 _ZNK15QWebPreferences15fixedFontFamilyEv@Base 5.0.2
 _ZNK15QWebPreferences15minimumFontSizeEv@Base 5.0.2
 _ZNK15QWebPreferences15serifFontFamilyEv@Base 5.0.2
 _ZNK15QWebPreferences15webAudioEnabledEv@Base 5.0.2
 _ZNK15QWebPreferences17cursiveFontFamilyEv@Base 5.0.2
 _ZNK15QWebPreferences17fantasyFontFamilyEv@Base 5.0.2
 _ZNK15QWebPreferences17fullScreenEnabledEv@Base 5.0.2
 _ZNK15QWebPreferences17javascriptEnabledEv@Base 5.0.2
 _ZNK15QWebPreferences18dnsPrefetchEnabledEv@Base 5.0.2
 _ZNK15QWebPreferences18standardFontFamilyEv@Base 5.0.2
 _ZNK15QWebPreferences18xssAuditingEnabledEv@Base 5.0.2
 _ZNK15QWebPreferences19localStorageEnabledEv@Base 5.0.2
 _ZNK15QWebPreferences19sansSerifFontFamilyEv@Base 5.0.2
 _ZNK15QWebPreferences20caretBrowsingEnabledEv@Base 5.0.2
 _ZNK15QWebPreferences20defaultFixedFontSizeEv@Base 5.0.2
 _ZNK15QWebPreferences20notificationsEnabledEv@Base 5.0.2
 _ZNK15QWebPreferences22developerExtrasEnabledEv@Base 5.0.2
 _ZNK15QWebPreferences22frameFlatteningEnabledEv@Base 5.0.2
 _ZNK15QWebPreferences22privateBrowsingEnabledEv@Base 5.0.2
 _ZNK15QWebPreferences24navigatorQtObjectEnabledEv@Base 5.0.2
 _ZNK15QWebPreferences24spatialNavigationEnabledEv@Base 5.6.0~rc
 _ZNK15QWebPreferences25linksIncludedInFocusChainEv@Base 5.6.0~rc
 _ZNK15QWebPreferences29fileAccessFromFileURLsAllowedEv@Base 5.2.0
 _ZNK15QWebPreferences33offlineWebApplicationCacheEnabledEv@Base 5.0.2
 _ZNK15QWebPreferences34universalAccessFromFileURLsAllowedEv@Base 5.2.0
 _ZNK15QWebScriptWorld5worldEv@Base 5.0.2
 _ZNK16QWebDownloadItem10metaObjectEv@Base 5.0.2
 _ZNK16QWebDownloadItem15destinationPathEv@Base 5.0.2
 _ZNK16QWebDownloadItem17suggestedFilenameEv@Base 5.0.2
 _ZNK16QWebDownloadItem18totalBytesReceivedEv@Base 5.0.2
 _ZNK16QWebDownloadItem21expectedContentLengthEv@Base 5.0.2
 _ZNK16QWebDownloadItem3urlEv@Base 5.0.2
 _ZNK16QWebDownloadItem8mimeTypeEv@Base 5.0.2
 _ZNK16QWebFrameAdapter10uniqueNameEv@Base 5.0.2
 _ZNK16QWebFrameAdapter10zoomFactorEv@Base 5.0.2
 _ZNK16QWebFrameAdapter11childFramesEv@Base 5.0.2
 _ZNK16QWebFrameAdapter11toPlainTextEv@Base 5.0.2
 _ZNK16QWebFrameAdapter12contentsSizeEv@Base 5.0.2
 _ZNK16QWebFrameAdapter12coreFrameUrlEv@Base 5.0.2
 _ZNK16QWebFrameAdapter12ownerElementEv@Base 5.212.0~alpha2
 _ZNK16QWebFrameAdapter14hitTestContentERK6QPoint@Base 5.0.2
 _ZNK16QWebFrameAdapter14scrollBarValueEN2Qt11OrientationE@Base 5.0.2
 _ZNK16QWebFrameAdapter14scrollPositionEv@Base 5.0.2
 _ZNK16QWebFrameAdapter14securityOriginEv@Base 5.0.2
 _ZNK16QWebFrameAdapter15documentElementEv@Base 5.0.2
 _ZNK16QWebFrameAdapter16customLayoutSizeEv@Base 5.0.2
 _ZNK16QWebFrameAdapter16lastRequestedUrlEv@Base 5.0.2
 _ZNK16QWebFrameAdapter16scrollBarMaximumEN2Qt11OrientationE@Base 5.0.2
 _ZNK16QWebFrameAdapter17scrollBarGeometryEN2Qt11OrientationE@Base 5.0.2
 _ZNK16QWebFrameAdapter17verticalScrollBarEv@Base 5.0.2
 _ZNK16QWebFrameAdapter19horizontalScrollBarEv@Base 5.0.2
 _ZNK16QWebFrameAdapter5titleEv@Base 5.0.2
 _ZNK16QWebFrameAdapter6toHtmlEv@Base 5.0.2
 _ZNK16QWebFrameAdapter7baseUrlEv@Base 5.0.2
 _ZNK16QWebFrameAdapter7hasViewEv@Base 5.0.2
 _ZNK16QWebFrameAdapter8hasFocusEv@Base 5.0.2
 _ZNK16QWebFrameAdapter8metaDataEv@Base 5.0.2
 _ZNK16QWebFrameAdapter9frameRectEv@Base 5.0.2
 _ZNK16QWebSelectMethod10metaObjectEv@Base 5.212.0~alpha2
 _ZNK16QWebSpellChecker10metaObjectEv@Base 5.212.0~alpha2
 _ZNK17QWebPluginFactory10metaObjectEv@Base 5.0.2
 _ZNK17QWebPluginFactory17supportsExtensionENS_9ExtensionE@Base 5.0.2
 _ZNK17QWebPluginFactory8MimeTypeeqERKS0_@Base 5.0.2
 _ZNK17QWebTouchModifier10metaObjectEv@Base 5.212.0~alpha2
 _ZNK18QQuickNetworkReply10metaObjectEv@Base 5.0.2
 _ZNK18QQuickNetworkReply11contentTypeEv@Base 5.0.2
 _ZNK18QQuickNetworkReply16networkReplyDataEv@Base 5.0.2
 _ZNK18QQuickNetworkReply18networkRequestDataEv@Base 5.0.2
 _ZNK18QQuickNetworkReply4dataEv@Base 5.0.2
 _ZNK18QWebPluginDatabase10metaObjectEv@Base 5.0.2
 _ZNK18QWebPluginDatabase7pluginsEv@Base 5.0.2
 _ZNK18QWebSecurityOrigin13databaseQuotaEv@Base 5.0.2
 _ZNK18QWebSecurityOrigin13databaseUsageEv@Base 5.0.2
 _ZNK18QWebSecurityOrigin4hostEv@Base 5.0.2
 _ZNK18QWebSecurityOrigin4portEv@Base 5.0.2
 _ZNK18QWebSecurityOrigin6schemeEv@Base 5.0.2
 _ZNK18QWebSecurityOrigin9databasesEv@Base 5.0.2
 _ZNK19QtWebSecurityOrigin10metaObjectEv@Base 5.0.2
 _ZNK19QtWebSecurityOrigin4hostEv@Base 5.0.2
 _ZNK19QtWebSecurityOrigin4pathEv@Base 5.0.2
 _ZNK19QtWebSecurityOrigin4portEv@Base 5.0.2
 _ZNK19QtWebSecurityOrigin6schemeEv@Base 5.0.2
 _ZNK20QQuickNetworkRequest10metaObjectEv@Base 5.0.2
 _ZNK20QQuickNetworkRequest3urlEv@Base 5.0.2
 _ZNK20QWebHistoryInterface10metaObjectEv@Base 5.0.2
 _ZNK21QQuickWebViewAttached10metaObjectEv@Base 5.0.2
 _ZNK21QWebElementCollection2atEi@Base 5.0.2
 _ZNK21QWebElementCollection5countEv@Base 5.0.2
 _ZNK21QWebElementCollection6toListEv@Base 5.0.2
 _ZNK21QWebElementCollectionplERKS_@Base 5.0.2
 _ZNK21QWebFullScreenRequest6originEv@Base 5.212.0~alpha2
 _ZNK21QWebFullScreenRequest7elementEv@Base 5.212.0~alpha2
 _ZNK21QWebFullScreenRequest8toggleOnEv@Base 5.212.0~alpha2
 _ZNK21QWebNavigationHistory10metaObjectEv@Base 5.0.2
 _ZNK21QWebNavigationHistory12forwardItemsEv@Base 5.0.2
 _ZNK21QWebNavigationHistory9backItemsEv@Base 5.0.2
 _ZNK21QWebNavigationRequest10metaObjectEv@Base 5.0.2
 _ZNK21QWebNavigationRequest11isMainFrameEv@Base 5.212.0~alpha2
 _ZNK21QWebNavigationRequest11mouseButtonEv@Base 5.0.2
 _ZNK21QWebNavigationRequest14navigationTypeEv@Base 5.0.2
 _ZNK21QWebNavigationRequest17keyboardModifiersEv@Base 5.0.2
 _ZNK21QWebNavigationRequest3urlEv@Base 5.0.2
 _ZNK21QWebNavigationRequest6actionEv@Base 5.0.2
 _ZNK21QWebPermissionRequest10metaObjectEv@Base 5.0.2
 _ZNK21QWebPermissionRequest4typeEv@Base 5.0.2
 _ZNK21QWebPermissionRequest5allowEv@Base 5.0.2
 _ZNK21QtPluginWidgetAdapter10metaObjectEv@Base 5.0.2
 _ZNK23QQuickUrlSchemeDelegate10metaObjectEv@Base 5.0.2
 _ZNK23QQuickUrlSchemeDelegate5replyEv@Base 5.0.2
 _ZNK23QQuickUrlSchemeDelegate6schemeEv@Base 5.0.2
 _ZNK23QQuickUrlSchemeDelegate7requestEv@Base 5.0.2
 _ZNK23QWebNavigationListModel10metaObjectEv@Base 5.0.2
 _ZNK23QWebNavigationListModel4dataERK11QModelIndexi@Base 5.0.2
 _ZNK23QWebNavigationListModel8rowCountERK11QModelIndex@Base 5.0.2
 _ZNK23QWebNavigationListModel9roleNamesEv@Base 5.0.2
 _ZNK24QWebHapticFeedbackPlayer10metaObjectEv@Base 5.212.0~alpha2
 _ZNK24QWebHitTestResultPrivate19elementForInnerNodeEv@Base 5.0.2
 _ZNK25QQuickWebViewExperimental10filePickerEv@Base 5.0.2
 _ZNK25QQuickWebViewExperimental10metaObjectEv@Base 5.0.2
 _ZNK25QQuickWebViewExperimental10webChannelEv@Base 5.212.0~alpha2
 _ZNK25QQuickWebViewExperimental11alertDialogEv@Base 5.0.2
 _ZNK25QQuickWebViewExperimental11deviceWidthEv@Base 5.0.2
 _ZNK25QQuickWebViewExperimental11preferencesEv@Base 5.0.2
 _ZNK25QQuickWebViewExperimental11userScriptsEv@Base 5.0.2
 _ZNK25QQuickWebViewExperimental12colorChooserEv@Base 5.0.2
 _ZNK25QQuickWebViewExperimental12deviceHeightEv@Base 5.0.2
 _ZNK25QQuickWebViewExperimental12itemSelectorEv@Base 5.0.2
 _ZNK25QQuickWebViewExperimental12promptDialogEv@Base 5.0.2
 _ZNK25QQuickWebViewExperimental13confirmDialogEv@Base 5.0.2
 _ZNK25QQuickWebViewExperimental15userStyleSheetsEv@Base 5.6.0~rc
 _ZNK25QQuickWebViewExperimental17navigationHistoryEv@Base 5.0.2
 _ZNK25QQuickWebViewExperimental18remoteInspectorUrlEv@Base 5.0.2
 _ZNK25QQuickWebViewExperimental19databaseQuotaDialogEv@Base 5.0.2
 _ZNK25QQuickWebViewExperimental20authenticationDialogEv@Base 5.0.2
 _ZNK25QQuickWebViewExperimental21transparentBackgroundEv@Base 5.0.2
 _ZNK25QQuickWebViewExperimental23renderToOffscreenBufferEv@Base 5.0.2
 _ZNK25QQuickWebViewExperimental25proxyAuthenticationDialogEv@Base 5.0.2
 _ZNK25QQuickWebViewExperimental25useDefaultContentItemSizeEv@Base 5.0.2
 _ZNK25QQuickWebViewExperimental29certificateVerificationDialogEv@Base 5.0.2
 _ZNK25QQuickWebViewExperimental29preferredMinimumContentsWidthEv@Base 5.0.2
 _ZNK25QQuickWebViewExperimental9userAgentEv@Base 5.0.2
 _ZNK25QWebNotificationPresenter10metaObjectEv@Base 5.212.0~alpha2
 (optional=templinst)_ZNKSt8_Rb_treeINSt7__cxx1112basic_stringIcSt11char_traitsIcESaIcEEES5_St9_IdentityIS5_ESt4lessIS5_ESaIS5_EE4findERKS5_@Base 5.212.0~alpha2
 (optional=templinst)_ZNKSt8_Rb_treeINSt7__cxx1112basic_stringIcSt11char_traitsIcESaIcEEESt4pairIKS5_9TBehaviorESt10_Select1stIS9_ESt4lessIS5_ESaIS9_EE4findERS7_@Base 5.4.2
 (optional=templinst|arch=sh4)_ZNKSt8functionIFvN6WebKit12CallbackBase5ErrorEEEclES2_@Base 5.212.0~alpha2
 (optional=templinst|arch=sh4)_ZNKSt8functionIFvN7WebCore12PolicyActionEEEclES1_@Base 5.212.0~alpha2
 (optional=templinst|arch=sh4)_ZNKSt8functionIFvN7WebCore15HysteresisStateEEEclES1_@Base 5.212.0~alpha2
 (optional=templinst|arch=sh4)_ZNKSt8functionIFvbEEclEb@Base 5.212.0~alpha2
 (optional=templinst|arch=sh4)_ZNKSt8functionIFvjEEclEj@Base 5.212.0~alpha2
 (optional=templinst|arch=sh4)_ZNKSt8functionIFvjN6WebKit12CallbackBase5ErrorEEEclEjS2_@Base 5.212.0~alpha2
 (optional=templinst|arch=sh4)_ZNKSt8functionIFvvEEclEv@Base 5.212.0~alpha2
 (optional=templinst|arch=sh4)_ZNKSt8functionIFvyEEclEy@Base 5.212.0~alpha2
 (optional=templinst|arch=armhf hurd-i386 i386 kfreebsd-i386 mips mipsel)_ZNSt10_HashtableIxSt4pairIKxPdESaIS3_ENSt8__detail10_Select1stESt8equal_toIxESt4hashIxENS5_18_Mod_range_hashingENS5_20_Default_ranged_hashENS5_20_Prime_rehash_policyENS5_17_Hashtable_traitsILb0ELb0ELb1EEEE21_M_insert_unique_nodeEjjPNS5_10_Hash_nodeIS3_Lb0EEE@Base 5.212.0~alpha2
 (optional=templinst|arch=armhf hurd-i386 i386 kfreebsd-i386 mips mipsel)_ZNSt10_HashtableIxSt4pairIKxPdESaIS3_ENSt8__detail10_Select1stESt8equal_toIxESt4hashIxENS5_18_Mod_range_hashingENS5_20_Default_ranged_hashENS5_20_Prime_rehash_policyENS5_17_Hashtable_traitsILb0ELb0ELb1EEEED1Ev@Base 5.212.0~alpha2
 (optional=templinst|arch=armhf hurd-i386 i386 kfreebsd-i386 mips mipsel)_ZNSt10_HashtableIxSt4pairIKxPdESaIS3_ENSt8__detail10_Select1stESt8equal_toIxESt4hashIxENS5_18_Mod_range_hashingENS5_20_Default_ranged_hashENS5_20_Prime_rehash_policyENS5_17_Hashtable_traitsILb0ELb0ELb1EEEED2Ev@Base 5.212.0~alpha2
 (optional=templinst)_ZNSt14_Function_base13_Base_managerIPFvbEE10_M_managerERSt9_Any_dataRKS4_St18_Manager_operation@Base 5.212.0~alpha2
 (optional=templinst)_ZNSt14_Function_base13_Base_managerIPFvvEE10_M_managerERSt9_Any_dataRKS4_St18_Manager_operation@Base 5.212.0~alpha2
 (optional=templinst)_ZNSt17_Function_handlerIFvbEPS0_E9_M_invokeERKSt9_Any_dataOb@Base 5.212.0~alpha2
 (optional=templinst)_ZNSt17_Function_handlerIFvvEPS0_E9_M_invokeERKSt9_Any_data@Base 5.212.0~alpha2
 (optional=templinst|arch=armel)_ZNSt19_Sp_counted_deleterIPSt5mutexNSt12__shared_ptrIS0_LN9__gnu_cxx12_Lock_policyE1EE8_DeleterISaIS0_EEES7_LS4_1EE10_M_destroyEv@Base 5.212.0~alpha2
 (optional=templinst|arch=armel)_ZNSt19_Sp_counted_deleterIPSt5mutexNSt12__shared_ptrIS0_LN9__gnu_cxx12_Lock_policyE1EE8_DeleterISaIS0_EEES7_LS4_1EE10_M_disposeEv@Base 5.212.0~alpha2
 (optional=templinst|arch=armel)_ZNSt19_Sp_counted_deleterIPSt5mutexNSt12__shared_ptrIS0_LN9__gnu_cxx12_Lock_policyE1EE8_DeleterISaIS0_EEES7_LS4_1EE14_M_get_deleterERKSt9type_info@Base 5.212.0~alpha2
 (optional=templinst|arch=armel)_ZNSt19_Sp_counted_deleterIPSt5mutexNSt12__shared_ptrIS0_LN9__gnu_cxx12_Lock_policyE1EE8_DeleterISaIS0_EEES7_LS4_1EED0Ev@Base 5.212.0~alpha2
 (optional=templinst|arch=armel)_ZNSt19_Sp_counted_deleterIPSt5mutexNSt12__shared_ptrIS0_LN9__gnu_cxx12_Lock_policyE1EE8_DeleterISaIS0_EEES7_LS4_1EED1Ev@Base 5.212.0~alpha2
 (optional=templinst|arch=armel)_ZNSt19_Sp_counted_deleterIPSt5mutexNSt12__shared_ptrIS0_LN9__gnu_cxx12_Lock_policyE1EE8_DeleterISaIS0_EEES7_LS4_1EED2Ev@Base 5.212.0~alpha2
 (optional=templinst|arch=alpha amd64 arm64 armhf hppa hurd-i386 i386 kfreebsd-amd64 kfreebsd-i386 mips mips64el mipsel powerpc powerpcspe ppc64 sh4 x32)_ZNSt19_Sp_counted_deleterIPSt5mutexNSt12__shared_ptrIS0_LN9__gnu_cxx12_Lock_policyE2EE8_DeleterISaIS0_EEES7_LS4_2EE10_M_destroyEv@Base 5.212.0~alpha2
 (optional=templinst|arch=alpha amd64 arm64 armhf hppa hurd-i386 i386 kfreebsd-amd64 kfreebsd-i386 mips mips64el mipsel powerpc powerpcspe ppc64 sh4 x32)_ZNSt19_Sp_counted_deleterIPSt5mutexNSt12__shared_ptrIS0_LN9__gnu_cxx12_Lock_policyE2EE8_DeleterISaIS0_EEES7_LS4_2EE10_M_disposeEv@Base 5.212.0~alpha2
 (optional=templinst|arch=alpha amd64 arm64 armhf hppa hurd-i386 i386 kfreebsd-amd64 kfreebsd-i386 mips mips64el mipsel powerpc powerpcspe ppc64 sh4 x32)_ZNSt19_Sp_counted_deleterIPSt5mutexNSt12__shared_ptrIS0_LN9__gnu_cxx12_Lock_policyE2EE8_DeleterISaIS0_EEES7_LS4_2EE14_M_get_deleterERKSt9type_info@Base 5.212.0~alpha2
 (optional=templinst|arch=alpha amd64 arm64 armhf hppa hurd-i386 i386 kfreebsd-amd64 kfreebsd-i386 mips mips64el mipsel powerpc powerpcspe ppc64 sh4 x32)_ZNSt19_Sp_counted_deleterIPSt5mutexNSt12__shared_ptrIS0_LN9__gnu_cxx12_Lock_policyE2EE8_DeleterISaIS0_EEES7_LS4_2EED0Ev@Base 5.212.0~alpha2
 (optional=templinst|arch=alpha amd64 arm64 armhf hppa hurd-i386 i386 kfreebsd-amd64 kfreebsd-i386 mips mips64el mipsel powerpc powerpcspe ppc64 sh4 x32)_ZNSt19_Sp_counted_deleterIPSt5mutexNSt12__shared_ptrIS0_LN9__gnu_cxx12_Lock_policyE2EE8_DeleterISaIS0_EEES7_LS4_2EED1Ev@Base 5.212.0~alpha2
 (optional=templinst|arch=alpha amd64 arm64 armhf hppa hurd-i386 i386 kfreebsd-amd64 kfreebsd-i386 mips mips64el mipsel powerpc powerpcspe ppc64 sh4 x32)_ZNSt19_Sp_counted_deleterIPSt5mutexNSt12__shared_ptrIS0_LN9__gnu_cxx12_Lock_policyE2EE8_DeleterISaIS0_EEES7_LS4_2EED2Ev@Base 5.212.0~alpha2
 (optional=templinst|arch=alpha amd64 arm64 armel armhf hppa hurd-i386 i386 kfreebsd-amd64 kfreebsd-i386 mips mips64el mipsel powerpc powerpcspe ppc64 sh4 x32)_ZNSt6thread11_State_implINS_8_InvokerISt5tupleIJPFvPN7bmalloc9AsyncTaskINS3_4HeapEMS5_FvvEEEES9_EEEEE6_M_runEv@Base 5.212.0~alpha2
 (optional=templinst)_ZNSt6vectorINSt7__cxx1112basic_stringIcSt11char_traitsIcESaIcEEESaIS5_EE17_M_realloc_insertIJRKS5_EEEvN9__gnu_cxx17__normal_iteratorIPS5_S7_EEDpOT_@Base 5.9.1
 (optional=templinst)_ZNSt6vectorINSt7__cxx1112basic_stringIcSt11char_traitsIcESaIcEEESaIS5_EEaSERKS7_@Base 5.4.2
 (optional=templinst)_ZNSt6vectorIhSaIhEE12emplace_backIJhEEEvDpOT_@Base 5.212.0~alpha2
 (optional=templinst)_ZNSt6vectorIiSaIiEE17_M_realloc_insertIJiEEEvN9__gnu_cxx17__normal_iteratorIPiS1_EEDpOT_@Base 5.9.1
 (optional=templinst|subst)_ZNSt6vectorIjSaIjEE14_M_fill_insertEN9__gnu_cxx17__normal_iteratorIPjS1_EE{size_t}RKj@Base 5.2.0
 (optional=templinst)_ZNSt6vectorIjSaIjEE17_M_realloc_insertIJRKjEEEvN9__gnu_cxx17__normal_iteratorIPjS1_EEDpOT_@Base 5.9.1
 (optional=templinst|arch=armel armhf hppa hurd-i386 i386 kfreebsd-i386 mips mipsel powerpc powerpcspe sh4 x32)_ZNSt6vectorIjSaIjEE17_M_realloc_insertIJjEEEvN9__gnu_cxx17__normal_iteratorIPjS1_EEDpOT_@Base 5.212.0~alpha2
 (optional=templinst|arch=!armel !armhf !hppa !hurd-i386 !i386 !kfreebsd-i386 !mips !mipsel !powerpc !powerpcspe !sh4 !x32)_ZNSt6vectorImSaImEE17_M_realloc_insertIJRKmEEEvN9__gnu_cxx17__normal_iteratorIPmS1_EEDpOT_@Base 5.9.1
 (optional=templinst|arch=!armel !armhf !hppa !hurd-i386 !i386 !kfreebsd-i386 !mips !mipsel !powerpc !powerpcspe !sh4 !x32)_ZNSt6vectorImSaImEE17_M_realloc_insertIJmEEEvN9__gnu_cxx17__normal_iteratorIPmS1_EEDpOT_@Base 5.9.1
 (optional=templinst|arch=sh4)_ZNSt6vectorIsSaIsEE17_M_default_appendEj@Base 5.212.0~alpha2
 (optional=templinst)_ZNSt6vectorIsSaIsEE17_M_realloc_insertIJRKsEEEvN9__gnu_cxx17__normal_iteratorIPsS1_EEDpOT_@Base 5.212.0~alpha2
 (optional=templinst|arch=sh4)_ZNSt6vectorItSaItEE17_M_default_appendEj@Base 5.212.0~alpha2
 (optional=templinst)_ZNSt6vectorItSaItEE17_M_realloc_insertIJRKtEEEvN9__gnu_cxx17__normal_iteratorIPtS1_EEDpOT_@Base 5.212.0~alpha2
 (optional=templinst|arch=sh4)_ZNSt7__cxx1112basic_stringIcSt11char_traitsIcESaIcEE12_M_constructIPKcEEvT_S8_St20forward_iterator_tag@Base 5.212.0~alpha2
 (optional=templinst|arch=sh4)_ZNSt7__cxx1112basic_stringIcSt11char_traitsIcESaIcEE12_M_constructIPcEEvT_S7_St20forward_iterator_tag@Base 5.212.0~alpha2
 (optional=templinst)_ZNSt8_Rb_treeIN7WebCore21WheelEventTestTrigger22DeferTestTriggerReasonES2_St9_IdentityIS2_ESt4lessIS2_ESaIS2_EE16_M_insert_uniqueIRKS2_EESt4pairISt17_Rb_tree_iteratorIS2_EbEOT_@Base 5.212.0~alpha2
 (optional=templinst)_ZNSt8_Rb_treeIN7WebCore21WheelEventTestTrigger22DeferTestTriggerReasonES2_St9_IdentityIS2_ESt4lessIS2_ESaIS2_EE5eraseERKS2_@Base 5.212.0~alpha2
 (optional=templinst)_ZNSt8_Rb_treeIN7WebCore21WheelEventTestTrigger22DeferTestTriggerReasonES2_St9_IdentityIS2_ESt4lessIS2_ESaIS2_EE8_M_eraseEPSt13_Rb_tree_nodeIS2_E@Base 5.212.0~alpha2
 (optional=templinst)_ZNSt8_Rb_treeINSt7__cxx1112basic_stringIcSt11char_traitsIcESaIcEEES5_St9_IdentityIS5_ESt4lessIS5_ESaIS5_EE16_M_insert_uniqueIRKS5_EESt4pairISt17_Rb_tree_iteratorIS5_EbEOT_@Base 5.212.0~alpha2
 (optional=templinst|arch=sh4)_ZNSt8_Rb_treeINSt7__cxx1112basic_stringIcSt11char_traitsIcESaIcEEES5_St9_IdentityIS5_ESt4lessIS5_ESaIS5_EE24_M_get_insert_unique_posERKS5_@Base 5.212.0~alpha2
 (optional=templinst)_ZNSt8_Rb_treeINSt7__cxx1112basic_stringIcSt11char_traitsIcESaIcEEES5_St9_IdentityIS5_ESt4lessIS5_ESaIS5_EE8_M_eraseEPSt13_Rb_tree_nodeIS5_E@Base 5.212.0~alpha2
 (optional=templinst|arch=sh4)_ZNSt8_Rb_treeINSt7__cxx1112basic_stringIcSt11char_traitsIcESaIcEEESt4pairIKS5_9TBehaviorESt10_Select1stIS9_ESt4lessIS5_ESaIS9_EE14_M_lower_boundEPSt13_Rb_tree_nodeIS9_EPSt18_Rb_tree_node_baseRS7_@Base 5.212.0~alpha2
 (optional=templinst|arch=sh4)_ZNSt8_Rb_treeINSt7__cxx1112basic_stringIcSt11char_traitsIcESaIcEEESt4pairIKS5_9TBehaviorESt10_Select1stIS9_ESt4lessIS5_ESaIS9_EE22_M_emplace_hint_uniqueIJRKSt21piecewise_construct_tSt5tupleIJOS5_EESK_IJEEEEESt17_Rb_tree_iteratorIS9_ESt23_Rb_tree_const_iteratorIS9_EDpOT_@Base 5.212.0~alpha2
 (optional=templinst)_ZNSt8_Rb_treeINSt7__cxx1112basic_stringIcSt11char_traitsIcESaIcEEESt4pairIKS5_9TBehaviorESt10_Select1stIS9_ESt4lessIS5_ESaIS9_EE24_M_get_insert_unique_posERS7_@Base 5.4.2
 (optional=templinst|arch=amd64 arm64 hppa kfreebsd-amd64 mips64el ppc64el sh4 sparc64 x32)_ZNSt8_Rb_treeINSt7__cxx1112basic_stringIcSt11char_traitsIcESaIcEEESt4pairIKS5_9TBehaviorESt10_Select1stIS9_ESt4lessIS5_ESaIS9_EE29_M_get_insert_hint_unique_posESt23_Rb_tree_const_iteratorIS9_ERS7_@Base 5.4.2
 (optional=templinst|arch=sh4)_ZNSt8_Rb_treeINSt7__cxx1112basic_stringIcSt11char_traitsIcESaIcEEESt4pairIKS5_9TBehaviorESt10_Select1stIS9_ESt4lessIS5_ESaIS9_EE4findERS7_@Base 5.212.0~alpha2
 (optional=templinst)_ZNSt8_Rb_treeINSt7__cxx1112basic_stringIcSt11char_traitsIcESaIcEEESt4pairIKS5_9TBehaviorESt10_Select1stIS9_ESt4lessIS5_ESaIS9_EE8_M_eraseEPSt13_Rb_tree_nodeIS9_E@Base 5.4.2
 (optional=templinst|arch=sh4)_ZNSt8_Rb_treeINSt7__cxx1112basic_stringIcSt11char_traitsIcESaIcEEESt4pairIKS5_S5_ESt10_Select1stIS8_ESt4lessIS5_ESaIS8_EE14_M_lower_boundEPSt13_Rb_tree_nodeIS8_EPSt18_Rb_tree_node_baseRS7_@Base 5.212.0~alpha2
 (optional=templinst|arch=sh4)_ZNSt8_Rb_treeINSt7__cxx1112basic_stringIcSt11char_traitsIcESaIcEEESt4pairIKS5_S5_ESt10_Select1stIS8_ESt4lessIS5_ESaIS8_EE22_M_emplace_hint_uniqueIJRKSt21piecewise_construct_tSt5tupleIJOS5_EESJ_IJEEEEESt17_Rb_tree_iteratorIS8_ESt23_Rb_tree_const_iteratorIS8_EDpOT_@Base 5.212.0~alpha2
 (optional=templinst)_ZNSt8_Rb_treeINSt7__cxx1112basic_stringIcSt11char_traitsIcESaIcEEESt4pairIKS5_S5_ESt10_Select1stIS8_ESt4lessIS5_ESaIS8_EE24_M_get_insert_unique_posERS7_@Base 5.4.2
 (optional=templinst|arch=amd64 arm64 hppa kfreebsd-amd64 mips64el ppc64el sh4 sparc64 x32)_ZNSt8_Rb_treeINSt7__cxx1112basic_stringIcSt11char_traitsIcESaIcEEESt4pairIKS5_S5_ESt10_Select1stIS8_ESt4lessIS5_ESaIS8_EE29_M_get_insert_hint_unique_posESt23_Rb_tree_const_iteratorIS8_ERS7_@Base 5.4.2
 (optional=templinst)_ZNSt8_Rb_treeINSt7__cxx1112basic_stringIcSt11char_traitsIcESaIcEEESt4pairIKS5_S5_ESt10_Select1stIS8_ESt4lessIS5_ESaIS8_EE8_M_eraseEPSt13_Rb_tree_nodeIS8_E@Base 5.4.2
 (optional=templinst|arch=sh4)_ZNSt8_Rb_treeISt4pairIjjES0_IKS1_jESt10_Select1stIS3_ESt4lessIS1_ESaIS3_EE14_M_lower_boundEPSt13_Rb_tree_nodeIS3_EPSt18_Rb_tree_node_baseRS2_@Base 5.212.0~alpha2
 (optional=templinst|arch=sh4)_ZNSt8_Rb_treeISt4pairIjjES0_IKS1_jESt10_Select1stIS3_ESt4lessIS1_ESaIS3_EE22_M_emplace_hint_uniqueIJRKSt21piecewise_construct_tSt5tupleIJRS2_EESE_IJEEEEESt17_Rb_tree_iteratorIS3_ESt23_Rb_tree_const_iteratorIS3_EDpOT_@Base 5.212.0~alpha2
 (optional=templinst)_ZNSt8_Rb_treeISt4pairIjjES0_IKS1_jESt10_Select1stIS3_ESt4lessIS1_ESaIS3_EE24_M_get_insert_unique_posERS2_@Base 5.212.0~alpha2
 (optional=templinst|arch=amd64 arm64 hppa kfreebsd-amd64 mips64el ppc64el sh4 x32)_ZNSt8_Rb_treeISt4pairIjjES0_IKS1_jESt10_Select1stIS3_ESt4lessIS1_ESaIS3_EE29_M_get_insert_hint_unique_posESt23_Rb_tree_const_iteratorIS3_ERS2_@Base 5.212.0~alpha2
 (optional=templinst)_ZNSt8_Rb_treeISt4pairIjjES0_IKS1_jESt10_Select1stIS3_ESt4lessIS1_ESaIS3_EE8_M_eraseEPSt13_Rb_tree_nodeIS3_E@Base 5.212.0~alpha2
 (optional=templinst)_ZNSt8_Rb_treeIiSt4pairIKiiESt10_Select1stIS2_ESt4lessIiESaIS2_EE24_M_get_insert_unique_posERS1_@Base 5.212.0~alpha2
 (optional=templinst|arch=amd64 arm64 hppa kfreebsd-amd64 mips64el ppc64el sh4 x32)_ZNSt8_Rb_treeIiSt4pairIKiiESt10_Select1stIS2_ESt4lessIiESaIS2_EE29_M_get_insert_hint_unique_posESt23_Rb_tree_const_iteratorIS2_ERS1_@Base 5.212.0~alpha2
 (optional=templinst)_ZNSt8_Rb_treeIiSt4pairIKiiESt10_Select1stIS2_ESt4lessIiESaIS2_EE8_M_eraseEPSt13_Rb_tree_nodeIS2_E@Base 5.212.0~alpha2
 (optional=templinst)_ZNSt8_Rb_treeIiiSt9_IdentityIiESt4lessIiESaIiEE16_M_insert_uniqueIRKiEESt4pairISt17_Rb_tree_iteratorIiEbEOT_@Base 5.212.0~alpha2
 (optional=templinst)_ZNSt8_Rb_treeIiiSt9_IdentityIiESt4lessIiESaIiEE16_M_insert_uniqueIiEESt4pairISt17_Rb_tree_iteratorIiEbEOT_@Base 5.212.0~alpha2
 (optional=templinst)_ZNSt8_Rb_treeIiiSt9_IdentityIiESt4lessIiESaIiEE8_M_eraseEPSt13_Rb_tree_nodeIiE@Base 5.212.0~alpha2
 (optional=templinst|arch=sh4)_ZNSt8_Rb_treeIjSt4pairIKjjESt10_Select1stIS2_ESt4lessIjESaIS2_EE22_M_emplace_hint_uniqueIJRKSt21piecewise_construct_tSt5tupleIJRS1_EESD_IJEEEEESt17_Rb_tree_iteratorIS2_ESt23_Rb_tree_const_iteratorIS2_EDpOT_@Base 5.212.0~alpha2
 (optional=templinst)_ZNSt8_Rb_treeIjSt4pairIKjjESt10_Select1stIS2_ESt4lessIjESaIS2_EE24_M_get_insert_unique_posERS1_@Base 5.212.0~alpha2
 (optional=templinst|arch=amd64 arm64 hppa kfreebsd-amd64 mips64el ppc64el sh4 x32)_ZNSt8_Rb_treeIjSt4pairIKjjESt10_Select1stIS2_ESt4lessIjESaIS2_EE29_M_get_insert_hint_unique_posESt23_Rb_tree_const_iteratorIS2_ERS1_@Base 5.212.0~alpha2
 (optional=templinst)_ZNSt8_Rb_treeIjSt4pairIKjjESt10_Select1stIS2_ESt4lessIjESaIS2_EE8_M_eraseEPSt13_Rb_tree_nodeIS2_E@Base 5.212.0~alpha2
 (optional=templinst)_ZNSt8_Rb_treeIjSt4pairIKjtESt10_Select1stIS2_ESt4lessIjESaIS2_EE24_M_get_insert_unique_posERS1_@Base 5.212.0~alpha2
 (optional=templinst|arch=amd64 arm64 hppa kfreebsd-amd64 mips64el ppc64el sh4 x32)_ZNSt8_Rb_treeIjSt4pairIKjtESt10_Select1stIS2_ESt4lessIjESaIS2_EE29_M_get_insert_hint_unique_posESt23_Rb_tree_const_iteratorIS2_ERS1_@Base 5.212.0~alpha2
 (optional=templinst)_ZNSt8_Rb_treeIjSt4pairIKjtESt10_Select1stIS2_ESt4lessIjESaIS2_EE8_M_eraseEPSt13_Rb_tree_nodeIS2_E@Base 5.212.0~alpha2
 (optional=templinst)_ZNSt8_Rb_treeIjjSt9_IdentityIjESt4lessIjESaIjEE16_M_insert_uniqueIRKjEESt4pairISt17_Rb_tree_iteratorIjEbEOT_@Base 5.212.0~alpha2
 (optional=templinst)_ZNSt8_Rb_treeIjjSt9_IdentityIjESt4lessIjESaIjEE8_M_eraseEPSt13_Rb_tree_nodeIjE@Base 5.212.0~alpha2
 (optional=templinst|arch=sh4)_ZNSt8functionIFvN6WebKit12CallbackBase5ErrorEEEC1ERKS4_@Base 5.212.0~alpha2
 (optional=templinst|arch=sh4)_ZNSt8functionIFvN6WebKit12CallbackBase5ErrorEEEC2ERKS4_@Base 5.212.0~alpha2
 (optional=templinst|arch=sh4)_ZNSt8functionIFvN7WebCore12PolicyActionEEEC1ERKS3_@Base 5.212.0~alpha2
 (optional=templinst|arch=sh4)_ZNSt8functionIFvN7WebCore12PolicyActionEEEC2ERKS3_@Base 5.212.0~alpha2
 (optional=templinst|arch=sh4)_ZNSt8functionIFvN7WebCore15HysteresisStateEEEC1ERKS3_@Base 5.212.0~alpha2
 (optional=templinst|arch=sh4)_ZNSt8functionIFvN7WebCore15HysteresisStateEEEC2ERKS3_@Base 5.212.0~alpha2
 (optional=templinst|arch=sh4)_ZNSt8functionIFvbEEC1ERKS1_@Base 5.212.0~alpha2
 (optional=templinst|arch=sh4)_ZNSt8functionIFvbEEC2ERKS1_@Base 5.212.0~alpha2
 (optional=templinst|arch=sh4)_ZNSt8functionIFvjN6WebKit12CallbackBase5ErrorEEEC1ERKS4_@Base 5.212.0~alpha2
 (optional=templinst|arch=sh4)_ZNSt8functionIFvjN6WebKit12CallbackBase5ErrorEEEC2ERKS4_@Base 5.212.0~alpha2
 (optional=templinst|arch=sh4)_ZNSt8functionIFvvEEC1ERKS1_@Base 5.212.0~alpha2
 (optional=templinst|arch=sh4)_ZNSt8functionIFvvEEC1ISt5_BindIFMN6WebKit10WebProcessEFvvEPS5_EEvvEET_@Base 5.212.0~alpha2
 (optional=templinst|arch=alpha armel armhf hurd-i386 i386 kfreebsd-i386 mips mips64el mipsel powerpc powerpcspe ppc64 ppc64el s390x sh4)_ZNSt8functionIFvvEEC1ISt5_BindIFMN7WebCore10LinkLoaderEFvvEPS5_EEvvEET_@Base 5.212.0~alpha2
 (optional=templinst|arch=sh4)_ZNSt8functionIFvvEEC1ISt5_BindIFMN7WebCore10SVGElementEFvvEPNS4_16SVGScriptElementEEEvvEET_@Base 5.212.0~alpha2
 (optional=templinst|arch=sh4)_ZNSt8functionIFvvEEC1ISt5_BindIFMN7WebCore12EventHandlerEFvvEPS5_EEvvEET_@Base 5.212.0~alpha2
 (optional=templinst|arch=alpha armel armhf hurd-i386 i386 kfreebsd-i386 mips mips64el mipsel powerpc powerpcspe ppc64 ppc64el s390x)_ZNSt8functionIFvvEEC1ISt5_BindIFMN7WebCore12GCControllerEFvvEPS5_EEvvEET_@Base 5.212.0~alpha2
 (optional=templinst|arch=sh4)_ZNSt8functionIFvvEEC1ISt5_BindIFMN7WebCore12SourceBufferEFvvEPS5_EEvvEET_@Base 5.212.0~alpha2
 (optional=templinst|arch=sh4)_ZNSt8functionIFvvEEC1ISt5_BindIFMN7WebCore14DocumentLoaderEFvvEPS5_EEvvEET_@Base 5.212.0~alpha2
 (optional=templinst|arch=sh4)_ZNSt8functionIFvvEEC1ISt5_BindIFMN7WebCore14XMLHttpRequestEFvvEPS5_EEvvEET_@Base 5.212.0~alpha2
 (optional=templinst|arch=sh4)_ZNSt8functionIFvvEEC1ISt5_BindIFMN7WebCore15MediaControllerEFvvEPS5_EEvvEET_@Base 5.212.0~alpha2
 (optional=templinst|arch=alpha armel armhf hurd-i386 i386 kfreebsd-i386 mips mips64el mipsel powerpc powerpcspe ppc64 ppc64el s390x sh4)_ZNSt8functionIFvvEEC1ISt5_BindIFMN7WebCore15StorageAreaImplEFvvEPS5_EEvvEET_@Base 5.212.0~alpha2
 (optional=templinst|arch=alpha armel armhf hurd-i386 i386 kfreebsd-i386 mips mips64el mipsel powerpc powerpcspe ppc64 ppc64el s390x sh4)_ZNSt8functionIFvvEEC1ISt5_BindIFMN7WebCore16HTMLMediaElementEFvvEPS5_EEvvEET_@Base 5.212.0~alpha2
 (optional=templinst|arch=sh4)_ZNSt8functionIFvvEEC1ISt5_BindIFMN7WebCore16WebSocketChannelEFvvEPS5_EEvvEET_@Base 5.212.0~alpha2
 (optional=templinst|arch=alpha armel armhf hurd-i386 i386 kfreebsd-i386 mips mips64el mipsel powerpc powerpcspe ppc64 ppc64el s390x sh4)_ZNSt8functionIFvvEEC1ISt5_BindIFMN7WebCore17BitmapTexturePoolEFvvEPS5_EEvvEET_@Base 5.212.0~alpha2
 (optional=templinst|arch=sh4)_ZNSt8functionIFvvEEC1ISt5_BindIFMN7WebCore17ValidationMessageEFvvEPS5_EEvvEET_@Base 5.212.0~alpha2
 (optional=templinst|arch=sh4)_ZNSt8functionIFvvEEC1ISt5_BindIFMN7WebCore18HysteresisActivityEFvvEPS5_EEvvEET_@Base 5.212.0~alpha2
 (optional=templinst|arch=alpha armel armhf hurd-i386 i386 kfreebsd-i386 mips mips64el mipsel powerpc powerpcspe ppc64 ppc64el s390x sh4)_ZNSt8functionIFvvEEC1ISt5_BindIFMN7WebCore19NotificationWrapperEFvvEPS5_EEvvEET_@Base 5.212.0~alpha2
 (optional=templinst|arch=alpha armel armhf hurd-i386 i386 kfreebsd-i386 mips mips64el mipsel powerpc powerpcspe ppc64 ppc64el s390x sh4)_ZNSt8functionIFvvEEC1ISt5_BindIFMN7WebCore21GeolocationClientMockEFvvEPS5_EEvvEET_@Base 5.212.0~alpha2
 (optional=templinst|arch=sh4)_ZNSt8functionIFvvEEC1ISt5_BindIFMN7WebCore21RenderLayerCompositorEFvvEPS5_EEvvEET_@Base 5.212.0~alpha2
 (optional=templinst|arch=alpha armel armhf hurd-i386 i386 kfreebsd-i386 mips mips64el mipsel powerpc powerpcspe ppc64 ppc64el s390x sh4)_ZNSt8functionIFvvEEC1ISt5_BindIFMN7WebCore22HTMLPlugInImageElementEFvvEPS5_EEvvEET_@Base 5.212.0~alpha2
 (optional=templinst|arch=alpha armel armhf hurd-i386 i386 kfreebsd-i386 mips mips64el mipsel powerpc powerpcspe ppc64 ppc64el s390x)_ZNSt8functionIFvvEEC1ISt5_BindIFMN7WebCore23ChangeRegionOversetTaskEFvvEPS5_EEvvEET_@Base 5.212.0~alpha2
 (optional=templinst|arch=sh4)_ZNSt8functionIFvvEEC1ISt5_BindIFMN7WebCore25WebGLRenderingContextBaseEFvvEPS5_EEvvEET_@Base 5.212.0~alpha2
 (optional=templinst|arch=alpha armel armhf hurd-i386 i386 kfreebsd-i386 mips mips64el mipsel powerpc powerpcspe ppc64 ppc64el s390x sh4)_ZNSt8functionIFvvEEC1ISt5_BindIFMN7WebCore26AnimationControllerPrivateEFvvEPS5_EEvvEET_@Base 5.212.0~alpha2
 (optional=templinst|arch=alpha armel armhf hurd-i386 i386 kfreebsd-i386 mips mips64el mipsel powerpc powerpcspe ppc64 ppc64el s390x)_ZNSt8functionIFvvEEC1ISt5_BindIFMN7WebCore28RevalidateStyleAttributeTaskEFvvEPS5_EEvvEET_@Base 5.212.0~alpha2
 (optional=templinst|arch=sh4)_ZNSt8functionIFvvEEC1ISt5_BindIFMN7WebCore8DocumentEFvvEPS5_EEvvEET_@Base 5.212.0~alpha2
 (optional=templinst|arch=alpha armel armhf hurd-i386 i386 kfreebsd-i386 mips mips64el mipsel powerpc powerpcspe ppc64 ppc64el s390x)_ZNSt8functionIFvvEEC1ISt5_BindIFMN7WebCore9FontCacheEFvvEPS5_EEvvEET_@Base 5.212.0~alpha2
 (optional=templinst|arch=sh4)_ZNSt8functionIFvvEEC1ISt5_BindIFMN7WebCore9FrameViewEFvvEPS5_EEvvEET_@Base 5.212.0~alpha2
 (optional=templinst|arch=sh4)_ZNSt8functionIFvvEEC1IZN7WebCore16GenericTaskQueueINS3_22ScriptExecutionContextEE11enqueueTaskES1_EUlvE_vvEET_@Base 5.212.0~alpha2
 (optional=templinst|arch=sh4)_ZNSt8functionIFvvEEC1IZN7WebCore19CrossThreadTaskImplINS3_9IDBServer17UniqueIDBDatabaseEJRKNS3_21IDBDatabaseIdentifierEEEC4EPS6_MS6_FvS9_ES9_EUlvE_vvEET_@Base 5.212.0~alpha2
 (optional=templinst|arch=sh4)_ZNSt8functionIFvvEEC1IZN7WebCore19CrossThreadTaskImplINS3_9IDBServer17UniqueIDBDatabaseEJyRKNS3_21IDBResourceIdentifierERKNS3_13IDBCursorInfoEEEC4EPS6_MS6_FvyS9_SC_EOyS9_SC_EUlvE_vvEET_@Base 5.212.0~alpha2
 (optional=templinst|arch=sh4)_ZNSt8functionIFvvEEC1IZN7WebCore19CrossThreadTaskImplINS3_9IDBServer17UniqueIDBDatabaseEJyRKNS3_21IDBResourceIdentifierEyRKNS3_15IDBKeyRangeDataEEEC4EPS6_MS6_FvyS9_ySC_EOyS9_SH_SC_EUlvE_vvEET_@Base 5.212.0~alpha2
 (optional=templinst|arch=sh4)_ZNSt8functionIFvvEEC1IZN7WebCore19CrossThreadTaskImplINS3_9IDBServer17UniqueIDBDatabaseEJyRKNS3_21IDBResourceIdentifierEyyNS3_9IndexedDB15IndexRecordTypeERKNS3_15IDBKeyRangeDataEEEC4EPS6_MS6_FvyS9_yySB_SE_EOyS9_SJ_SJ_OSB_SE_EUlvE_vvEET_@Base 5.212.0~alpha2
 (optional=templinst|arch=sh4)_ZNSt8functionIFvvEEC1IZN7WebCore19CrossThreadTaskImplINS3_9IDBServer17UniqueIDBDatabaseEJyRKNS3_21IDBResourceIdentifierEyyRKNS3_15IDBKeyRangeDataEEEC4EPS6_MS6_FvyS9_yySC_EOyS9_SH_SH_SC_EUlvE_vvEET_@Base 5.212.0~alpha2
 (optional=templinst|arch=sh4)_ZNSt8functionIFvvEEC1IZN7WebCore19CrossThreadTaskImplINS3_9IDBServer17UniqueIDBDatabaseEJyRKNS3_8IDBErrorERKNS3_12IDBGetResultEEEC4EPS6_MS6_FvyS9_SC_EOyS9_SC_EUlvE_vvEET_@Base 5.212.0~alpha2
 (optional=templinst|arch=sh4)_ZNSt8functionIFvvEEC1IZN7WebCore9IDBClient24TransactionOperationImplIJEEC4ERNS4_14IDBTransactionEMS7_FvRKNS3_13IDBResultDataEEMS7_FvRNS4_20TransactionOperationEEEUlvE_vvEET_@Base 5.212.0~alpha2
 (optional=templinst|arch=sh4)_ZNSt8functionIFvvEEC1IZN7WebCore9IDBClient24TransactionOperationImplIJN3WTF6RefPtrINS3_6IDBKeyEEENS7_INS3_21SerializedScriptValueEEERKNS3_9IndexedDB24ObjectStoreOverwriteModeEEEC4ERNS4_14IDBTransactionERNS4_10IDBRequestEMSH_FvSK_RKNS3_13IDBResultDataEEMSH_FvRNS4_20TransactionOperationES9_SB_SF_EOS9_OSB_SF_EUlvE_vvEET_@Base 5.212.0~alpha2
 (optional=templinst|arch=sh4)_ZNSt8functionIFvvEEC1IZN7WebCore9IDBClient24TransactionOperationImplIJRKNS3_13IDBCursorInfoEEEC4ERNS4_14IDBTransactionERNS4_10IDBRequestEMSA_FvSD_RKNS3_13IDBResultDataEEMSA_FvRNS4_20TransactionOperationES8_ES8_EUlvE_vvEET_@Base 5.212.0~alpha2
 (optional=templinst|arch=sh4)_ZNSt8functionIFvvEEC1IZN7WebCore9IDBClient24TransactionOperationImplIJRKNS3_15IDBKeyRangeDataEEEC4ERNS4_14IDBTransactionERNS4_10IDBRequestEMSA_FvSD_RKNS3_13IDBResultDataEEMSA_FvRNS4_20TransactionOperationES8_ES8_EUlvE_vvEET_@Base 5.212.0~alpha2
 (optional=templinst|arch=sh4)_ZNSt8functionIFvvEEC1IZN7WebCore9IDBClient24TransactionOperationImplIJRKNS3_18IDBObjectStoreInfoEEEC4ERNS4_14IDBTransactionEMSA_FvRKNS3_13IDBResultDataEEMSA_FvRNS4_20TransactionOperationES8_ES8_EUlvE_vvEET_@Base 5.212.0~alpha2
 (optional=templinst|arch=sh4)_ZNSt8functionIFvvEEC2ERKS1_@Base 5.212.0~alpha2
 (optional=templinst|arch=sh4)_ZNSt8functionIFvvEEC2ISt5_BindIFMN6WebKit10WebProcessEFvvEPS5_EEvvEET_@Base 5.212.0~alpha2
 (optional=templinst|arch=alpha armel armhf hurd-i386 i386 kfreebsd-i386 mips mips64el mipsel powerpc powerpcspe ppc64 ppc64el s390x sh4)_ZNSt8functionIFvvEEC2ISt5_BindIFMN7WebCore10LinkLoaderEFvvEPS5_EEvvEET_@Base 5.212.0~alpha2
 (optional=templinst|arch=sh4)_ZNSt8functionIFvvEEC2ISt5_BindIFMN7WebCore10SVGElementEFvvEPNS4_16SVGScriptElementEEEvvEET_@Base 5.212.0~alpha2
 (optional=templinst|arch=sh4)_ZNSt8functionIFvvEEC2ISt5_BindIFMN7WebCore12EventHandlerEFvvEPS5_EEvvEET_@Base 5.212.0~alpha2
 (optional=templinst|arch=alpha armel armhf hurd-i386 i386 kfreebsd-i386 mips mips64el mipsel powerpc powerpcspe ppc64 ppc64el s390x)_ZNSt8functionIFvvEEC2ISt5_BindIFMN7WebCore12GCControllerEFvvEPS5_EEvvEET_@Base 5.212.0~alpha2
 (optional=templinst|arch=sh4)_ZNSt8functionIFvvEEC2ISt5_BindIFMN7WebCore12SourceBufferEFvvEPS5_EEvvEET_@Base 5.212.0~alpha2
 (optional=templinst|arch=sh4)_ZNSt8functionIFvvEEC2ISt5_BindIFMN7WebCore14DocumentLoaderEFvvEPS5_EEvvEET_@Base 5.212.0~alpha2
 (optional=templinst|arch=sh4)_ZNSt8functionIFvvEEC2ISt5_BindIFMN7WebCore14XMLHttpRequestEFvvEPS5_EEvvEET_@Base 5.212.0~alpha2
 (optional=templinst|arch=sh4)_ZNSt8functionIFvvEEC2ISt5_BindIFMN7WebCore15MediaControllerEFvvEPS5_EEvvEET_@Base 5.212.0~alpha2
 (optional=templinst|arch=alpha armel armhf hurd-i386 i386 kfreebsd-i386 mips mips64el mipsel powerpc powerpcspe ppc64 ppc64el s390x sh4)_ZNSt8functionIFvvEEC2ISt5_BindIFMN7WebCore15StorageAreaImplEFvvEPS5_EEvvEET_@Base 5.212.0~alpha2
 (optional=templinst|arch=alpha armel armhf hurd-i386 i386 kfreebsd-i386 mips mips64el mipsel powerpc powerpcspe ppc64 ppc64el s390x sh4)_ZNSt8functionIFvvEEC2ISt5_BindIFMN7WebCore16HTMLMediaElementEFvvEPS5_EEvvEET_@Base 5.212.0~alpha2
 (optional=templinst|arch=sh4)_ZNSt8functionIFvvEEC2ISt5_BindIFMN7WebCore16WebSocketChannelEFvvEPS5_EEvvEET_@Base 5.212.0~alpha2
 (optional=templinst|arch=alpha armel armhf hurd-i386 i386 kfreebsd-i386 mips mips64el mipsel powerpc powerpcspe ppc64 ppc64el s390x sh4)_ZNSt8functionIFvvEEC2ISt5_BindIFMN7WebCore17BitmapTexturePoolEFvvEPS5_EEvvEET_@Base 5.212.0~alpha2
 (optional=templinst|arch=sh4)_ZNSt8functionIFvvEEC2ISt5_BindIFMN7WebCore17ValidationMessageEFvvEPS5_EEvvEET_@Base 5.212.0~alpha2
 (optional=templinst|arch=sh4)_ZNSt8functionIFvvEEC2ISt5_BindIFMN7WebCore18HysteresisActivityEFvvEPS5_EEvvEET_@Base 5.212.0~alpha2
 (optional=templinst|arch=alpha armel armhf hurd-i386 i386 kfreebsd-i386 mips mips64el mipsel powerpc powerpcspe ppc64 ppc64el s390x sh4)_ZNSt8functionIFvvEEC2ISt5_BindIFMN7WebCore19NotificationWrapperEFvvEPS5_EEvvEET_@Base 5.212.0~alpha2
 (optional=templinst|arch=alpha armel armhf hurd-i386 i386 kfreebsd-i386 mips mips64el mipsel powerpc powerpcspe ppc64 ppc64el s390x sh4)_ZNSt8functionIFvvEEC2ISt5_BindIFMN7WebCore21GeolocationClientMockEFvvEPS5_EEvvEET_@Base 5.212.0~alpha2
 (optional=templinst|arch=sh4)_ZNSt8functionIFvvEEC2ISt5_BindIFMN7WebCore21RenderLayerCompositorEFvvEPS5_EEvvEET_@Base 5.212.0~alpha2
 (optional=templinst|arch=alpha armel armhf hurd-i386 i386 kfreebsd-i386 mips mips64el mipsel powerpc powerpcspe ppc64 ppc64el s390x sh4)_ZNSt8functionIFvvEEC2ISt5_BindIFMN7WebCore22HTMLPlugInImageElementEFvvEPS5_EEvvEET_@Base 5.212.0~alpha2
 (optional=templinst|arch=alpha armel armhf hurd-i386 i386 kfreebsd-i386 mips mips64el mipsel powerpc powerpcspe ppc64 ppc64el s390x)_ZNSt8functionIFvvEEC2ISt5_BindIFMN7WebCore23ChangeRegionOversetTaskEFvvEPS5_EEvvEET_@Base 5.212.0~alpha2
 (optional=templinst|arch=sh4)_ZNSt8functionIFvvEEC2ISt5_BindIFMN7WebCore25WebGLRenderingContextBaseEFvvEPS5_EEvvEET_@Base 5.212.0~alpha2
 (optional=templinst|arch=alpha armel armhf hurd-i386 i386 kfreebsd-i386 mips mips64el mipsel powerpc powerpcspe ppc64 ppc64el s390x sh4)_ZNSt8functionIFvvEEC2ISt5_BindIFMN7WebCore26AnimationControllerPrivateEFvvEPS5_EEvvEET_@Base 5.212.0~alpha2
 (optional=templinst|arch=alpha armel armhf hurd-i386 i386 kfreebsd-i386 mips mips64el mipsel powerpc powerpcspe ppc64 ppc64el s390x)_ZNSt8functionIFvvEEC2ISt5_BindIFMN7WebCore28RevalidateStyleAttributeTaskEFvvEPS5_EEvvEET_@Base 5.212.0~alpha2
 (optional=templinst|arch=sh4)_ZNSt8functionIFvvEEC2ISt5_BindIFMN7WebCore8DocumentEFvvEPS5_EEvvEET_@Base 5.212.0~alpha2
 (optional=templinst|arch=alpha armel armhf hurd-i386 i386 kfreebsd-i386 mips mips64el mipsel powerpc powerpcspe ppc64 ppc64el s390x)_ZNSt8functionIFvvEEC2ISt5_BindIFMN7WebCore9FontCacheEFvvEPS5_EEvvEET_@Base 5.212.0~alpha2
 (optional=templinst|arch=sh4)_ZNSt8functionIFvvEEC2ISt5_BindIFMN7WebCore9FrameViewEFvvEPS5_EEvvEET_@Base 5.212.0~alpha2
 (optional=templinst|arch=sh4)_ZNSt8functionIFvvEEC2IZN7WebCore16GenericTaskQueueINS3_22ScriptExecutionContextEE11enqueueTaskES1_EUlvE_vvEET_@Base 5.212.0~alpha2
 (optional=templinst|arch=sh4)_ZNSt8functionIFvvEEC2IZN7WebCore19CrossThreadTaskImplINS3_9IDBServer17UniqueIDBDatabaseEJRKNS3_21IDBDatabaseIdentifierEEEC4EPS6_MS6_FvS9_ES9_EUlvE_vvEET_@Base 5.212.0~alpha2
 (optional=templinst|arch=sh4)_ZNSt8functionIFvvEEC2IZN7WebCore19CrossThreadTaskImplINS3_9IDBServer17UniqueIDBDatabaseEJyRKNS3_21IDBResourceIdentifierERKNS3_13IDBCursorInfoEEEC4EPS6_MS6_FvyS9_SC_EOyS9_SC_EUlvE_vvEET_@Base 5.212.0~alpha2
 (optional=templinst|arch=sh4)_ZNSt8functionIFvvEEC2IZN7WebCore19CrossThreadTaskImplINS3_9IDBServer17UniqueIDBDatabaseEJyRKNS3_21IDBResourceIdentifierEyRKNS3_15IDBKeyRangeDataEEEC4EPS6_MS6_FvyS9_ySC_EOyS9_SH_SC_EUlvE_vvEET_@Base 5.212.0~alpha2
 (optional=templinst|arch=sh4)_ZNSt8functionIFvvEEC2IZN7WebCore19CrossThreadTaskImplINS3_9IDBServer17UniqueIDBDatabaseEJyRKNS3_21IDBResourceIdentifierEyyNS3_9IndexedDB15IndexRecordTypeERKNS3_15IDBKeyRangeDataEEEC4EPS6_MS6_FvyS9_yySB_SE_EOyS9_SJ_SJ_OSB_SE_EUlvE_vvEET_@Base 5.212.0~alpha2
 (optional=templinst|arch=sh4)_ZNSt8functionIFvvEEC2IZN7WebCore19CrossThreadTaskImplINS3_9IDBServer17UniqueIDBDatabaseEJyRKNS3_21IDBResourceIdentifierEyyRKNS3_15IDBKeyRangeDataEEEC4EPS6_MS6_FvyS9_yySC_EOyS9_SH_SH_SC_EUlvE_vvEET_@Base 5.212.0~alpha2
 (optional=templinst|arch=sh4)_ZNSt8functionIFvvEEC2IZN7WebCore19CrossThreadTaskImplINS3_9IDBServer17UniqueIDBDatabaseEJyRKNS3_8IDBErrorERKNS3_12IDBGetResultEEEC4EPS6_MS6_FvyS9_SC_EOyS9_SC_EUlvE_vvEET_@Base 5.212.0~alpha2
 (optional=templinst|arch=sh4)_ZNSt8functionIFvvEEC2IZN7WebCore9IDBClient24TransactionOperationImplIJEEC4ERNS4_14IDBTransactionEMS7_FvRKNS3_13IDBResultDataEEMS7_FvRNS4_20TransactionOperationEEEUlvE_vvEET_@Base 5.212.0~alpha2
 (optional=templinst|arch=sh4)_ZNSt8functionIFvvEEC2IZN7WebCore9IDBClient24TransactionOperationImplIJN3WTF6RefPtrINS3_6IDBKeyEEENS7_INS3_21SerializedScriptValueEEERKNS3_9IndexedDB24ObjectStoreOverwriteModeEEEC4ERNS4_14IDBTransactionERNS4_10IDBRequestEMSH_FvSK_RKNS3_13IDBResultDataEEMSH_FvRNS4_20TransactionOperationES9_SB_SF_EOS9_OSB_SF_EUlvE_vvEET_@Base 5.212.0~alpha2
 (optional=templinst|arch=sh4)_ZNSt8functionIFvvEEC2IZN7WebCore9IDBClient24TransactionOperationImplIJRKNS3_13IDBCursorInfoEEEC4ERNS4_14IDBTransactionERNS4_10IDBRequestEMSA_FvSD_RKNS3_13IDBResultDataEEMSA_FvRNS4_20TransactionOperationES8_ES8_EUlvE_vvEET_@Base 5.212.0~alpha2
 (optional=templinst|arch=sh4)_ZNSt8functionIFvvEEC2IZN7WebCore9IDBClient24TransactionOperationImplIJRKNS3_15IDBKeyRangeDataEEEC4ERNS4_14IDBTransactionERNS4_10IDBRequestEMSA_FvSD_RKNS3_13IDBResultDataEEMSA_FvRNS4_20TransactionOperationES8_ES8_EUlvE_vvEET_@Base 5.212.0~alpha2
 (optional=templinst|arch=sh4)_ZNSt8functionIFvvEEC2IZN7WebCore9IDBClient24TransactionOperationImplIJRKNS3_18IDBObjectStoreInfoEEEC4ERNS4_14IDBTransactionEMSA_FvRKNS3_13IDBResultDataEEMSA_FvRNS4_20TransactionOperationES8_ES8_EUlvE_vvEET_@Base 5.212.0~alpha2
 (optional=templinst|arch=sh4)_ZSt3maxIfERKT_S2_S2_@Base 5.212.0~alpha2
 (optional=templinst|arch=sh4)_ZSt3minIfERKT_S2_S2_@Base 5.212.0~alpha2
 (optional=templinst|arch=armel armhf hurd-i386 i386 kfreebsd-i386 mips mipsel powerpc powerpcspe)_ZSt4swapIN8QVariant7PrivateEENSt9enable_ifIXsrSt6__and_IJSt6__not_ISt15__is_tuple_likeIT_EESt21is_move_constructibleIS6_ESt18is_move_assignableIS6_EEE5valueEvE4typeERS6_SG_@Base 5.9.1
 (optional=templinst|arch=sh4)_ZSt9__reverseIPhEvT_S1_St26random_access_iterator_tag@Base 5.212.0~alpha2
 (optional=templinst|arch=!mips !mipsel)_ZStplIcSt11char_traitsIcESaIcEENSt7__cxx1112basic_stringIT_T0_T1_EERKS8_SA_@Base 5.212.0~alpha2
 _ZTI17QWebPluginFactory@Base 5.0.2
 _ZTI20QWebHistoryInterface@Base 5.0.2
 _ZTS17QWebPluginFactory@Base 5.0.2
 _ZTS20QWebHistoryInterface@Base 5.0.2
 _ZTV11QWebKitTest@Base 5.0.2
 _ZTV13QQuickWebPage@Base 5.0.2
 _ZTV13QQuickWebView@Base 5.0.2
 _ZTV15QWebLoadRequest@Base 5.0.2
 _ZTV15QWebPageAdapter@Base 5.0.2
 _ZTV15QWebPreferences@Base 5.0.2
 _ZTV16QWebDownloadItem@Base 5.0.2
 _ZTV16QWebFrameAdapter@Base 5.0.2
 _ZTV16QWebSelectMethod@Base 5.212.0~alpha2
 _ZTV16QWebSpellChecker@Base 5.212.0~alpha2
 _ZTV17QWebPluginFactory@Base 5.0.2
 _ZTV17QWebTouchModifier@Base 5.212.0~alpha2
 _ZTV18QQuickNetworkReply@Base 5.0.2
 _ZTV18QWebPluginDatabase@Base 5.0.2
 _ZTV19QtWebSecurityOrigin@Base 5.0.2
 _ZTV20QQuickNetworkRequest@Base 5.0.2
 _ZTV20QWebHistoryInterface@Base 5.0.2
 _ZTV21QQuickWebViewAttached@Base 5.0.2
 _ZTV21QWebIconImageProvider@Base 5.0.2
 _ZTV21QWebNavigationHistory@Base 5.0.2
 _ZTV21QWebNavigationRequest@Base 5.0.2
 _ZTV21QWebPermissionRequest@Base 5.0.2
 _ZTV21QtPluginWidgetAdapter@Base 5.0.2
 _ZTV23QQuickUrlSchemeDelegate@Base 5.0.2
 _ZTV23QWebNavigationListModel@Base 5.0.2
 _ZTV24QWebHapticFeedbackPlayer@Base 5.212.0~alpha2
 _ZTV25QQuickWebViewExperimental@Base 5.0.2
 _ZTV25QWebNotificationPresenter@Base 5.212.0~alpha2
 (arch=alpha amd64 arm64 armel armhf hppa hurd-i386 i386 kfreebsd-amd64 kfreebsd-i386 mips mips64el mipsel powerpc powerpcspe ppc64 sh4 x32)_ZTVNSt6thread11_State_implINS_8_InvokerISt5tupleIJPFvPN7bmalloc9AsyncTaskINS3_4HeapEMS5_FvvEEEES9_EEEEEE@Base 5.212.0~alpha2
 (arch=armel)_ZTVSt19_Sp_counted_deleterIPSt5mutexNSt12__shared_ptrIS0_LN9__gnu_cxx12_Lock_policyE1EE8_DeleterISaIS0_EEES7_LS4_1EE@Base 5.212.0~alpha2
 (arch=alpha amd64 arm64 armhf hppa hurd-i386 i386 kfreebsd-amd64 kfreebsd-i386 mips mips64el mipsel powerpc powerpcspe ppc64 sh4 x32)_ZTVSt19_Sp_counted_deleterIPSt5mutexNSt12__shared_ptrIS0_LN9__gnu_cxx12_Lock_policyE2EE8_DeleterISaIS0_EEES7_LS4_2EE@Base 5.212.0~alpha2
 _ZZZN21QWebIconImageProvider10identifierEvENKUlvE_clEvE15qstring_literal@Base 5.2.0
 _ZlsR11QDataStreamRK11QWebHistory@Base 5.0.2
 _ZrsR11QDataStreamR11QWebHistory@Base 5.0.2
 (arch=hurd-i386)llintPCRangeEnd@Base 5.212.0~alpha2
 (arch=hurd-i386)llintPCRangeStart@Base 5.212.0~alpha2
 (arch=hurd-i386)llint_entry@Base 5.212.0~alpha2
 (c++)"non-virtual thunk to QQuickWebPage::~QQuickWebPage()@Base" 5.0.2
 (c++)"non-virtual thunk to QQuickWebView::componentComplete()@Base" 5.0.2
 (c++)"non-virtual thunk to QQuickWebView::~QQuickWebView()@Base" 5.0.2
 (arch=hurd-i386)sanitizeStackForVMImpl@Base 5.212.0~alpha2
 (arch=hurd-i386)vmEntryRecord@Base 5.212.0~alpha2
 (arch=hurd-i386)vmEntryToJavaScript@Base 5.212.0~alpha2
 (arch=hurd-i386)vmEntryToNative@Base 5.212.0~alpha2
libQt5WebKitWidgets.so.5 libqt5webkit5 #MINVER#
 (optional=linker)Qt_5.0@Qt_5.0 5.6.1
 (optional=linker)Qt_5.1@Qt_5.1 5.6.1
 (optional=linker)Qt_5.2@Qt_5.2 5.6.1
 (optional=linker)Qt_5.3@Qt_5.3 5.6.1
 (optional=linker)Qt_5.4@Qt_5.4 5.6.1
 (optional=linker)Qt_5.5@Qt_5.5 5.6.1
 (optional=linker)Qt_5.6@Qt_5.6 5.6.1
 (optional=linker)Qt_5.7@Qt_5.7 5.7.0
 (optional=linker)Qt_5.8@Qt_5.8 5.9.0
 (optional=linker)Qt_5.9@Qt_5.9 5.9.0
 (optional=linker)Qt_5@Qt_5 5.6.1
 (optional=linker)Qt_5_PRIVATE_API@Qt_5_PRIVATE_API 5.6.1
 _ZN13QWebInspector10closeEventEP11QCloseEvent@Qt_5 5.6.0~rc
 _ZN13QWebInspector11qt_metacallEN11QMetaObject4CallEiPPv@Qt_5 5.6.0~rc
 _ZN13QWebInspector11qt_metacastEPKc@Qt_5 5.6.0~rc
 _ZN13QWebInspector11resizeEventEP12QResizeEvent@Qt_5 5.6.0~rc
 _ZN13QWebInspector16staticMetaObjectE@Qt_5 5.6.0~rc
 _ZN13QWebInspector5eventEP6QEvent@Qt_5 5.6.0~rc
 _ZN13QWebInspector7setPageEP8QWebPage@Qt_5 5.6.0~rc
 _ZN13QWebInspector9hideEventEP10QHideEvent@Qt_5 5.6.0~rc
 _ZN13QWebInspector9showEventEP10QShowEvent@Qt_5 5.6.0~rc
 _ZN13QWebInspectorC1EP7QWidget@Qt_5 5.6.0~rc
 _ZN13QWebInspectorC2EP7QWidget@Qt_5 5.6.0~rc
 _ZN13QWebInspectorD0Ev@Qt_5 5.6.0~rc
 _ZN13QWebInspectorD1Ev@Qt_5 5.6.0~rc
 _ZN13QWebInspectorD2Ev@Qt_5 5.6.0~rc
 _ZN16QGraphicsWebView10itemChangeEN13QGraphicsItem18GraphicsItemChangeERK8QVariant@Qt_5 5.6.0~rc
 _ZN16QGraphicsWebView10sceneEventEP6QEvent@Qt_5 5.6.0~rc
 _ZN16QGraphicsWebView10setContentERK10QByteArrayRK7QStringRK4QUrl@Qt_5 5.6.0~rc
 _ZN16QGraphicsWebView10urlChangedERK4QUrl@Qt_5 5.6.0~rc
 _ZN16QGraphicsWebView10wheelEventEP24QGraphicsSceneWheelEvent@Qt_5 5.6.0~rc
 _ZN16QGraphicsWebView11iconChangedEv@Qt_5 5.6.0~rc
 _ZN16QGraphicsWebView11linkClickedERK4QUrl@Qt_5 5.6.0~rc
 _ZN16QGraphicsWebView11loadStartedEv@Qt_5 5.6.0~rc
 _ZN16QGraphicsWebView11qt_metacallEN11QMetaObject4CallEiPPv@Qt_5 5.6.0~rc
 _ZN16QGraphicsWebView11qt_metacastEPKc@Qt_5 5.6.0~rc
 _ZN16QGraphicsWebView11setGeometryERK6QRectF@Qt_5 5.6.0~rc
 _ZN16QGraphicsWebView12focusInEventEP11QFocusEvent@Qt_5 5.6.0~rc
 _ZN16QGraphicsWebView12loadFinishedEb@Qt_5 5.6.0~rc
 _ZN16QGraphicsWebView12loadProgressEi@Qt_5 5.6.0~rc
 _ZN16QGraphicsWebView12titleChangedERK7QString@Qt_5 5.6.0~rc
 _ZN16QGraphicsWebView13dragMoveEventEP27QGraphicsSceneDragDropEvent@Qt_5 5.6.0~rc
 _ZN16QGraphicsWebView13focusOutEventEP11QFocusEvent@Qt_5 5.6.0~rc
 _ZN16QGraphicsWebView13keyPressEventEP9QKeyEvent@Qt_5 5.6.0~rc
 _ZN16QGraphicsWebView13setRenderHintEN8QPainter10RenderHintEb@Qt_5 5.6.0~rc
 _ZN16QGraphicsWebView13setZoomFactorEd@Qt_5 5.6.0~rc
 _ZN16QGraphicsWebView14dragEnterEventEP27QGraphicsSceneDragDropEvent@Qt_5 5.6.0~rc
 _ZN16QGraphicsWebView14dragLeaveEventEP27QGraphicsSceneDragDropEvent@Qt_5 5.6.0~rc
 _ZN16QGraphicsWebView14hoverMoveEventEP24QGraphicsSceneHoverEvent@Qt_5 5.6.0~rc
 _ZN16QGraphicsWebView14mouseMoveEventEP24QGraphicsSceneMouseEvent@Qt_5 5.6.0~rc
 _ZN16QGraphicsWebView14setRenderHintsE6QFlagsIN8QPainter10RenderHintEE@Qt_5 5.6.0~rc
 _ZN16QGraphicsWebView14updateGeometryEv@Qt_5 5.6.0~rc
 _ZN16QGraphicsWebView15hoverLeaveEventEP24QGraphicsSceneHoverEvent@Qt_5 5.6.0~rc
 _ZN16QGraphicsWebView15keyReleaseEventEP9QKeyEvent@Qt_5 5.6.0~rc
 _ZN16QGraphicsWebView15mousePressEventEP24QGraphicsSceneMouseEvent@Qt_5 5.6.0~rc
 _ZN16QGraphicsWebView16contextMenuEventEP30QGraphicsSceneContextMenuEvent@Qt_5 5.6.0~rc
 _ZN16QGraphicsWebView16inputMethodEventEP17QInputMethodEvent@Qt_5 5.6.0~rc
 _ZN16QGraphicsWebView16staticMetaObjectE@Qt_5 5.6.0~rc
 _ZN16QGraphicsWebView16statusBarMessageERK7QString@Qt_5 5.6.0~rc
 _ZN16QGraphicsWebView17mouseReleaseEventEP24QGraphicsSceneMouseEvent@Qt_5 5.6.0~rc
 _ZN16QGraphicsWebView17triggerPageActionEN8QWebPage9WebActionEb@Qt_5 5.6.0~rc
 _ZN16QGraphicsWebView18focusNextPrevChildEb@Qt_5 5.6.0~rc
 _ZN16QGraphicsWebView20setResizesToContentsEb@Qt_5 5.6.0~rc
 _ZN16QGraphicsWebView21mouseDoubleClickEventEP24QGraphicsSceneMouseEvent@Qt_5 5.6.0~rc
 _ZN16QGraphicsWebView26setTiledBackingStoreFrozenEb@Qt_5 5.6.0~rc
 _ZN16QGraphicsWebView4backEv@Qt_5 5.6.0~rc
 _ZN16QGraphicsWebView4loadERK15QNetworkRequestN21QNetworkAccessManager9OperationERK10QByteArray@Qt_5 5.6.0~rc
 _ZN16QGraphicsWebView4loadERK4QUrl@Qt_5 5.6.0~rc
 _ZN16QGraphicsWebView4stopEv@Qt_5 5.6.0~rc
 _ZN16QGraphicsWebView5eventEP6QEvent@Qt_5 5.6.0~rc
 _ZN16QGraphicsWebView5paintEP8QPainterPK24QStyleOptionGraphicsItemP7QWidget@Qt_5 5.6.0~rc
 _ZN16QGraphicsWebView6reloadEv@Qt_5 5.6.0~rc
 _ZN16QGraphicsWebView6setUrlERK4QUrl@Qt_5 5.6.0~rc
 _ZN16QGraphicsWebView7forwardEv@Qt_5 5.6.0~rc
 _ZN16QGraphicsWebView7setHtmlERK7QStringRK4QUrl@Qt_5 5.6.0~rc
 _ZN16QGraphicsWebView7setPageEP8QWebPage@Qt_5 5.6.0~rc
 _ZN16QGraphicsWebView8findTextERK7QString6QFlagsIN8QWebPage8FindFlagEE@Qt_5 5.6.0~rc
 _ZN16QGraphicsWebView9dropEventEP27QGraphicsSceneDragDropEvent@Qt_5 5.6.0~rc
 _ZN16QGraphicsWebViewC1EP13QGraphicsItem@Qt_5 5.6.0~rc
 _ZN16QGraphicsWebViewC2EP13QGraphicsItem@Qt_5 5.6.0~rc
 _ZN16QGraphicsWebViewD0Ev@Qt_5 5.6.0~rc
 _ZN16QGraphicsWebViewD1Ev@Qt_5 5.6.0~rc
 _ZN16QGraphicsWebViewD2Ev@Qt_5 5.6.0~rc
 _ZN17QWebHitTestResultC1EP24QWebHitTestResultPrivate@Qt_5 5.6.0~rc
 _ZN17QWebHitTestResultC1ERKS_@Qt_5 5.6.0~rc
 _ZN17QWebHitTestResultC1Ev@Qt_5 5.6.0~rc
 _ZN17QWebHitTestResultC2EP24QWebHitTestResultPrivate@Qt_5 5.6.0~rc
 _ZN17QWebHitTestResultC2ERKS_@Qt_5 5.6.0~rc
 _ZN17QWebHitTestResultC2Ev@Qt_5 5.6.0~rc
 _ZN17QWebHitTestResultD1Ev@Qt_5 5.6.0~rc
 _ZN17QWebHitTestResultD2Ev@Qt_5 5.6.0~rc
 _ZN17QWebHitTestResultaSERKS_@Qt_5 5.6.0~rc
 _ZN6WebKit23initializeWebKitWidgetsEv@Qt_5 5.6.0~rc
 _ZN8QWebPage10chooseFileEP9QWebFrameRK7QString@Qt_5 5.6.0~rc
 _ZN8QWebPage10setPaletteERK8QPalette@Qt_5 5.6.0~rc
 _ZN8QWebPage11linkClickedERK4QUrl@Qt_5 5.6.0~rc
 _ZN8QWebPage11linkHoveredERK7QStringS2_S2_@Qt_5 5.6.0~rc
 _ZN8QWebPage11loadStartedEv@Qt_5 5.6.0~rc
 _ZN8QWebPage11qt_metacallEN11QMetaObject4CallEiPPv@Qt_5 5.6.0~rc
 _ZN8QWebPage11qt_metacastEPKc@Qt_5 5.6.0~rc
 _ZN8QWebPage12createPluginERK7QStringRK4QUrlRK11QStringListS8_@Qt_5 5.6.0~rc
 _ZN8QWebPage12createWindowENS_13WebWindowTypeE@Qt_5 5.6.0~rc
 _ZN8QWebPage12frameCreatedEP9QWebFrame@Qt_5 5.6.0~rc
 _ZN8QWebPage12loadFinishedEb@Qt_5 5.6.0~rc
 _ZN8QWebPage12loadProgressEi@Qt_5 5.6.0~rc
 _ZN8QWebPage13triggerActionENS_9WebActionEb@Qt_5 5.6.0~rc
 _ZN8QWebPage14printRequestedEP9QWebFrame@Qt_5 5.6.0~rc
 _ZN8QWebPage15contentsChangedEv@Qt_5 5.6.0~rc
 _ZN8QWebPage15javaScriptAlertEP9QWebFrameRK7QString@Qt_5 5.6.0~rc
 _ZN8QWebPage15scrollRequestedEiiRK5QRect@Qt_5 5.6.0~rc
 _ZN8QWebPage16javaScriptPromptEP9QWebFrameRK7QStringS4_PS2_@Qt_5 5.6.0~rc
 _ZN8QWebPage16repaintRequestedERK5QRect@Qt_5 5.6.0~rc
 _ZN8QWebPage16selectionChangedEv@Qt_5 5.6.0~rc
 _ZN8QWebPage16setPluginFactoryEP17QWebPluginFactory@Qt_5 5.6.0~rc
 _ZN8QWebPage16staticMetaObjectE@Qt_5 5.6.0~rc
 _ZN8QWebPage16statusBarMessageERK7QString@Qt_5 5.6.0~rc
 _ZN8QWebPage17downloadRequestedERK15QNetworkRequest@Qt_5 5.6.0~rc
 _ZN8QWebPage17javaScriptConfirmEP9QWebFrameRK7QString@Qt_5 5.6.0~rc
 _ZN8QWebPage17microFocusChangedEv@Qt_5 5.6.0~rc
 _ZN8QWebPage18ViewportAttributesC1ERKS0_@Qt_5 5.6.0~rc
 _ZN8QWebPage18ViewportAttributesC1Ev@Qt_5 5.6.0~rc
 _ZN8QWebPage18ViewportAttributesC2ERKS0_@Qt_5 5.6.0~rc
 _ZN8QWebPage18ViewportAttributesC2Ev@Qt_5 5.6.0~rc
 _ZN8QWebPage18ViewportAttributesD1Ev@Qt_5 5.6.0~rc
 _ZN8QWebPage18ViewportAttributesD2Ev@Qt_5 5.6.0~rc
 _ZN8QWebPage18ViewportAttributesaSERKS0_@Qt_5 5.6.0~rc
 _ZN8QWebPage18focusNextPrevChildEb@Qt_5 5.6.0~rc
 _ZN8QWebPage18setContentEditableEb@Qt_5 5.6.0~rc
 _ZN8QWebPage18setVisibilityStateENS_15VisibilityStateE@Qt_5 5.6.0~rc
 _ZN8QWebPage18unsupportedContentEP13QNetworkReply@Qt_5 5.6.0~rc
 _ZN8QWebPage19fullScreenRequestedE21QWebFullScreenRequest@Qt_5 5.212.0~alpha2
 _ZN8QWebPage19setDevicePixelRatioEd@Qt_5 5.212.0~alpha2
 _ZN8QWebPage20setFeaturePermissionEP9QWebFrameNS_7FeatureENS_16PermissionPolicyE@Qt_5 5.6.0~rc
 _ZN8QWebPage20windowCloseRequestedEv@Qt_5 5.6.0~rc
 _ZN8QWebPage21databaseQuotaExceededEP9QWebFrame7QString@Qt_5 5.6.0~rc
 _ZN8QWebPage21focusedElementChangedERK11QWebElement@Qt_5 5.212.0~alpha2
 _ZN8QWebPage21resetDevicePixelRatioEv@Qt_5 5.212.0~alpha2
 _ZN8QWebPage22consoleMessageReceivedENS_13MessageSourceENS_12MessageLevelERK7QStringiS4_@Qt_5 5.212.0~alpha2
 _ZN8QWebPage22recentlyAudibleChangedEb@Qt_5 5.212.0~alpha2
 _ZN8QWebPage23acceptNavigationRequestEP9QWebFrameRK15QNetworkRequestNS_14NavigationTypeE@Qt_5 5.6.0~rc
 _ZN8QWebPage23geometryChangeRequestedERK5QRect@Qt_5 5.6.0~rc
 _ZN8QWebPage23saveFrameStateRequestedEP9QWebFrameP15QWebHistoryItem@Qt_5 5.6.0~rc
 _ZN8QWebPage23setLinkDelegationPolicyENS_20LinkDelegationPolicyE@Qt_5 5.6.0~rc
 _ZN8QWebPage23setNetworkAccessManagerEP21QNetworkAccessManager@Qt_5 5.6.0~rc
 _ZN8QWebPage23swallowContextMenuEventEP17QContextMenuEvent@Qt_5 5.6.0~rc
 _ZN8QWebPage23viewportChangeRequestedEv@Qt_5 5.6.0~rc
 _ZN8QWebPage24javaScriptConsoleMessageERK7QStringiS2_@Qt_5 5.6.0~rc
 _ZN8QWebPage25createStandardContextMenuEv@Qt_5 5.6.0~rc
 _ZN8QWebPage25shouldInterruptJavaScriptEv@Qt_5 5.6.0~rc
 _ZN8QWebPage26featurePermissionRequestedEP9QWebFrameNS_7FeatureE@Qt_5 5.6.0~rc
 _ZN8QWebPage26restoreFrameStateRequestedEP9QWebFrame@Qt_5 5.6.0~rc
 _ZN8QWebPage28setForwardUnsupportedContentEb@Qt_5 5.6.0~rc
 _ZN8QWebPage29applicationCacheQuotaExceededEP18QWebSecurityOriginyy@Qt_5 5.6.0~rc
 _ZN8QWebPage30updatePositionDependentActionsERK6QPoint@Qt_5 5.6.0~rc
 _ZN8QWebPage32featurePermissionRequestCanceledEP9QWebFrameNS_7FeatureE@Qt_5 5.6.0~rc
 _ZN8QWebPage32menuBarVisibilityChangeRequestedEb@Qt_5 5.6.0~rc
 _ZN8QWebPage32toolBarVisibilityChangeRequestedEb@Qt_5 5.6.0~rc
 _ZN8QWebPage34statusBarVisibilityChangeRequestedEb@Qt_5 5.6.0~rc
 _ZN8QWebPage5eventEP6QEvent@Qt_5 5.6.0~rc
 _ZN8QWebPage7setViewEP7QWidget@Qt_5 5.6.0~rc
 _ZN8QWebPage8findTextERK7QString6QFlagsINS_8FindFlagEE@Qt_5 5.6.0~rc
 _ZN8QWebPage9extensionENS_9ExtensionEPKNS_15ExtensionOptionEPNS_15ExtensionReturnE@Qt_5 5.6.0~rc
 _ZN8QWebPageC1EP7QObject@Qt_5 5.6.0~rc
 _ZN8QWebPageC2EP7QObject@Qt_5 5.6.0~rc
 _ZN8QWebPageD0Ev@Qt_5 5.6.0~rc
 _ZN8QWebPageD1Ev@Qt_5 5.6.0~rc
 _ZN8QWebPageD2Ev@Qt_5 5.6.0~rc
 _ZN8QWebView10paintEventEP11QPaintEvent@Qt_5 5.6.0~rc
 _ZN8QWebView10setContentERK10QByteArrayRK7QStringRK4QUrl@Qt_5 5.6.0~rc
 _ZN8QWebView10urlChangedERK4QUrl@Qt_5 5.6.0~rc
 _ZN8QWebView10wheelEventEP11QWheelEvent@Qt_5 5.6.0~rc
 _ZN8QWebView11changeEventEP6QEvent@Qt_5 5.6.0~rc
 _ZN8QWebView11iconChangedEv@Qt_5 5.6.0~rc
 _ZN8QWebView11linkClickedERK4QUrl@Qt_5 5.6.0~rc
 _ZN8QWebView11loadStartedEv@Qt_5 5.6.0~rc
 _ZN8QWebView11qt_metacallEN11QMetaObject4CallEiPPv@Qt_5 5.6.0~rc
 _ZN8QWebView11qt_metacastEPKc@Qt_5 5.6.0~rc
 _ZN8QWebView11resizeEventEP12QResizeEvent@Qt_5 5.6.0~rc
 _ZN8QWebView12createWindowEN8QWebPage13WebWindowTypeE@Qt_5 5.6.0~rc
 _ZN8QWebView12focusInEventEP11QFocusEvent@Qt_5 5.6.0~rc
 _ZN8QWebView12loadFinishedEb@Qt_5 5.6.0~rc
 _ZN8QWebView12loadProgressEi@Qt_5 5.6.0~rc
 _ZN8QWebView12titleChangedERK7QString@Qt_5 5.6.0~rc
 _ZN8QWebView13dragMoveEventEP14QDragMoveEvent@Qt_5 5.6.0~rc
 _ZN8QWebView13focusOutEventEP11QFocusEvent@Qt_5 5.6.0~rc
 _ZN8QWebView13keyPressEventEP9QKeyEvent@Qt_5 5.6.0~rc
 _ZN8QWebView13setRenderHintEN8QPainter10RenderHintEb@Qt_5 5.6.0~rc
 _ZN8QWebView13setZoomFactorEd@Qt_5 5.6.0~rc
 _ZN8QWebView14dragEnterEventEP15QDragEnterEvent@Qt_5 5.6.0~rc
 _ZN8QWebView14dragLeaveEventEP15QDragLeaveEvent@Qt_5 5.6.0~rc
 _ZN8QWebView14mouseMoveEventEP11QMouseEvent@Qt_5 5.6.0~rc
 _ZN8QWebView14setRenderHintsE6QFlagsIN8QPainter10RenderHintEE@Qt_5 5.6.0~rc
 _ZN8QWebView15keyReleaseEventEP9QKeyEvent@Qt_5 5.6.0~rc
 _ZN8QWebView15mousePressEventEP11QMouseEvent@Qt_5 5.6.0~rc
 _ZN8QWebView16contextMenuEventEP17QContextMenuEvent@Qt_5 5.6.0~rc
 _ZN8QWebView16inputMethodEventEP17QInputMethodEvent@Qt_5 5.6.0~rc
 _ZN8QWebView16selectionChangedEv@Qt_5 5.6.0~rc
 _ZN8QWebView16staticMetaObjectE@Qt_5 5.6.0~rc
 _ZN8QWebView16statusBarMessageERK7QString@Qt_5 5.6.0~rc
 _ZN8QWebView17mouseReleaseEventEP11QMouseEvent@Qt_5 5.6.0~rc
 _ZN8QWebView17triggerPageActionEN8QWebPage9WebActionEb@Qt_5 5.6.0~rc
 _ZN8QWebView18focusNextPrevChildEb@Qt_5 5.6.0~rc
 _ZN8QWebView21mouseDoubleClickEventEP11QMouseEvent@Qt_5 5.6.0~rc
 _ZN8QWebView21setTextSizeMultiplierEd@Qt_5 5.6.0~rc
 _ZN8QWebView4backEv@Qt_5 5.6.0~rc
 _ZN8QWebView4loadERK15QNetworkRequestN21QNetworkAccessManager9OperationERK10QByteArray@Qt_5 5.6.0~rc
 _ZN8QWebView4loadERK4QUrl@Qt_5 5.6.0~rc
 _ZN8QWebView4stopEv@Qt_5 5.6.0~rc
 _ZN8QWebView5eventEP6QEvent@Qt_5 5.6.0~rc
 _ZN8QWebView6reloadEv@Qt_5 5.6.0~rc
 _ZN8QWebView6setUrlERK4QUrl@Qt_5 5.6.0~rc
 _ZN8QWebView7forwardEv@Qt_5 5.6.0~rc
 _ZN8QWebView7setHtmlERK7QStringRK4QUrl@Qt_5 5.6.0~rc
 _ZN8QWebView7setPageEP8QWebPage@Qt_5 5.6.0~rc
 _ZN8QWebView8findTextERK7QString6QFlagsIN8QWebPage8FindFlagEE@Qt_5 5.6.0~rc
 _ZN8QWebView9dropEventEP10QDropEvent@Qt_5 5.6.0~rc
 _ZN8QWebViewC1EP7QWidget@Qt_5 5.6.0~rc
 _ZN8QWebViewC2EP7QWidget@Qt_5 5.6.0~rc
 _ZN8QWebViewD0Ev@Qt_5 5.6.0~rc
 _ZN8QWebViewD1Ev@Qt_5 5.6.0~rc
 _ZN8QWebViewD2Ev@Qt_5 5.6.0~rc
 _ZN9QWebFrame10setContentERK10QByteArrayRK7QStringRK4QUrl@Qt_5 5.6.0~rc
 _ZN9QWebFrame10urlChangedERK4QUrl@Qt_5 5.6.0~rc
 _ZN9QWebFrame11iconChangedEv@Qt_5 5.6.0~rc
 _ZN9QWebFrame11loadStartedEv@Qt_5 5.6.0~rc
 _ZN9QWebFrame11pageChangedEv@Qt_5 5.6.0~rc
 _ZN9QWebFrame11qt_metacallEN11QMetaObject4CallEiPPv@Qt_5 5.6.0~rc
 _ZN9QWebFrame11qt_metacastEPKc@Qt_5 5.6.0~rc
 _ZN9QWebFrame12loadFinishedEb@Qt_5 5.6.0~rc
 _ZN9QWebFrame12titleChangedERK7QString@Qt_5 5.6.0~rc
 _ZN9QWebFrame13setZoomFactorEd@Qt_5 5.6.0~rc
 _ZN9QWebFrame14scrollToAnchorERK7QString@Qt_5 5.6.0~rc
 _ZN9QWebFrame15provisionalLoadEv@Qt_5 5.6.0~rc
 _ZN9QWebFrame16staticMetaObjectE@Qt_5 5.6.0~rc
 _ZN9QWebFrame17setScrollBarValueEN2Qt11OrientationEi@Qt_5 5.6.0~rc
 _ZN9QWebFrame17setScrollPositionERK6QPoint@Qt_5 5.6.0~rc
 _ZN9QWebFrame18evaluateJavaScriptERK7QString@Qt_5 5.6.0~rc
 _ZN9QWebFrame18setScrollBarPolicyEN2Qt11OrientationENS0_15ScrollBarPolicyE@Qt_5 5.6.0~rc
 _ZN9QWebFrame19contentsSizeChangedERK5QSize@Qt_5 5.6.0~rc
 _ZN9QWebFrame21setTextSizeMultiplierEd@Qt_5 5.6.0~rc
 _ZN9QWebFrame22initialLayoutCompletedEv@Qt_5 5.6.0~rc
 _ZN9QWebFrame27addToJavaScriptWindowObjectERK7QStringP7QObjectNS_14ValueOwnershipE@Qt_5 5.6.0~rc
 _ZN9QWebFrame29javaScriptWindowObjectClearedEv@Qt_5 5.6.0~rc
 _ZN9QWebFrame4loadERK15QNetworkRequestN21QNetworkAccessManager9OperationERK10QByteArray@Qt_5 5.6.0~rc
 _ZN9QWebFrame4loadERK4QUrl@Qt_5 5.6.0~rc
 _ZN9QWebFrame5eventEP6QEvent@Qt_5 5.6.0~rc
 _ZN9QWebFrame6renderEP8QPainter6QFlagsINS_11RenderLayerEERK7QRegion@Qt_5 5.6.0~rc
 _ZN9QWebFrame6renderEP8QPainterRK7QRegion@Qt_5 5.6.0~rc
 _ZN9QWebFrame6scrollEii@Qt_5 5.6.0~rc
 _ZN9QWebFrame6setUrlERK4QUrl@Qt_5 5.6.0~rc
 _ZN9QWebFrame7setHtmlERK7QStringRK4QUrl@Qt_5 5.6.0~rc
 _ZN9QWebFrame8setFocusEv@Qt_5 5.6.0~rc
 _ZN9QWebFrameC1EP8QWebPage@Qt_5 5.6.0~rc
 _ZN9QWebFrameC1EPS_P13QWebFrameData@Qt_5 5.6.0~rc
 _ZN9QWebFrameC2EP8QWebPage@Qt_5 5.6.0~rc
 _ZN9QWebFrameC2EPS_P13QWebFrameData@Qt_5 5.6.0~rc
 _ZN9QWebFrameD0Ev@Qt_5 5.6.0~rc
 _ZN9QWebFrameD1Ev@Qt_5 5.6.0~rc
 _ZN9QWebFrameD2Ev@Qt_5 5.6.0~rc
 _ZNK13QWebInspector10metaObjectEv@Qt_5 5.6.0~rc
 _ZNK13QWebInspector4pageEv@Qt_5 5.6.0~rc
 _ZNK13QWebInspector8sizeHintEv@Qt_5 5.6.0~rc
 _ZNK16QGraphicsWebView10isModifiedEv@Qt_5 5.6.0~rc
 _ZNK16QGraphicsWebView10metaObjectEv@Qt_5 5.6.0~rc
 _ZNK16QGraphicsWebView10pageActionEN8QWebPage9WebActionE@Qt_5 5.6.0~rc
 _ZNK16QGraphicsWebView10zoomFactorEv@Qt_5 5.6.0~rc
 _ZNK16QGraphicsWebView11renderHintsEv@Qt_5 5.6.0~rc
 _ZNK16QGraphicsWebView16inputMethodQueryEN2Qt16InputMethodQueryE@Qt_5 5.6.0~rc
 _ZNK16QGraphicsWebView17resizesToContentsEv@Qt_5 5.6.0~rc
 _ZNK16QGraphicsWebView25isTiledBackingStoreFrozenEv@Qt_5 5.6.0~rc
 _ZNK16QGraphicsWebView3urlEv@Qt_5 5.6.0~rc
 _ZNK16QGraphicsWebView4iconEv@Qt_5 5.6.0~rc
 _ZNK16QGraphicsWebView4pageEv@Qt_5 5.6.0~rc
 _ZNK16QGraphicsWebView5titleEv@Qt_5 5.6.0~rc
 _ZNK16QGraphicsWebView7historyEv@Qt_5 5.6.0~rc
 _ZNK16QGraphicsWebView8settingsEv@Qt_5 5.6.0~rc
 _ZNK16QGraphicsWebView8sizeHintEN2Qt8SizeHintERK6QSizeF@Qt_5 5.6.0~rc
 _ZNK17QWebHitTestResult11linkElementEv@Qt_5 5.6.0~rc
 _ZNK17QWebHitTestResult12boundingRectEv@Qt_5 5.6.0~rc
 _ZNK17QWebHitTestResult13alternateTextEv@Qt_5 5.6.0~rc
 _ZNK17QWebHitTestResult15linkTargetFrameEv@Qt_5 5.6.0~rc
 _ZNK17QWebHitTestResult15linkTitleStringEv@Qt_5 5.6.0~rc
 _ZNK17QWebHitTestResult17isContentEditableEv@Qt_5 5.6.0~rc
 _ZNK17QWebHitTestResult17isContentSelectedEv@Qt_5 5.6.0~rc
 _ZNK17QWebHitTestResult21enclosingBlockElementEv@Qt_5 5.6.0~rc
 _ZNK17QWebHitTestResult3posEv@Qt_5 5.6.0~rc
 _ZNK17QWebHitTestResult5frameEv@Qt_5 5.6.0~rc
 _ZNK17QWebHitTestResult5titleEv@Qt_5 5.6.0~rc
 _ZNK17QWebHitTestResult6isNullEv@Qt_5 5.6.0~rc
 _ZNK17QWebHitTestResult6pixmapEv@Qt_5 5.6.0~rc
 _ZNK17QWebHitTestResult7elementEv@Qt_5 5.6.0~rc
 _ZNK17QWebHitTestResult7linkUrlEv@Qt_5 5.6.0~rc
 _ZNK17QWebHitTestResult8imageUrlEv@Qt_5 5.6.0~rc
 _ZNK17QWebHitTestResult8linkTextEv@Qt_5 5.6.0~rc
 _ZNK17QWebHitTestResult8mediaUrlEv@Qt_5 5.6.0~rc
 _ZNK17QWebHitTestResult9linkTitleEv@Qt_5 5.6.0~rc
 _ZNK8QWebPage10isModifiedEv@Qt_5 5.6.0~rc
 _ZNK8QWebPage10metaObjectEv@Qt_5 5.6.0~rc
 _ZNK8QWebPage10totalBytesEv@Qt_5 5.6.0~rc
 _ZNK8QWebPage12currentFrameEv@Qt_5 5.6.0~rc
 _ZNK8QWebPage12customActionEi@Qt_5 5.9.0
 _ZNK8QWebPage12hasSelectionEv@Qt_5 5.6.0~rc
 _ZNK8QWebPage12selectedHtmlEv@Qt_5 5.6.0~rc
 _ZNK8QWebPage12selectedTextEv@Qt_5 5.6.0~rc
 _ZNK8QWebPage12viewportSizeEv@Qt_5 5.6.0~rc
 _ZNK8QWebPage13bytesReceivedEv@Qt_5 5.6.0~rc
 _ZNK8QWebPage13pluginFactoryEv@Qt_5 5.6.0~rc
 _ZNK8QWebPage15recentlyAudibleEv@Qt_5 5.212.0~alpha2
 _ZNK8QWebPage15setViewportSizeERK5QSize@Qt_5 5.6.0~rc
 _ZNK8QWebPage15userAgentForUrlERK4QUrl@Qt_5 5.6.0~rc
 _ZNK8QWebPage15visibilityStateEv@Qt_5 5.6.0~rc
 _ZNK8QWebPage16devicePixelRatioEv@Qt_5 5.212.0~alpha2
 _ZNK8QWebPage16inputMethodQueryEN2Qt16InputMethodQueryE@Qt_5 5.6.0~rc
 _ZNK8QWebPage17isContentEditableEv@Qt_5 5.6.0~rc
 _ZNK8QWebPage17supportsExtensionENS_9ExtensionE@Qt_5 5.6.0~rc
 _ZNK8QWebPage19supportsContentTypeERK7QString@Qt_5 5.6.0~rc
 _ZNK8QWebPage20linkDelegationPolicyEv@Qt_5 5.6.0~rc
 _ZNK8QWebPage20networkAccessManagerEv@Qt_5 5.6.0~rc
 _ZNK8QWebPage21preferredContentsSizeEv@Qt_5 5.6.0~rc
 _ZNK8QWebPage21supportedContentTypesEv@Qt_5 5.6.0~rc
 _ZNK8QWebPage24setPreferredContentsSizeERK5QSize@Qt_5 5.6.0~rc
 _ZNK8QWebPage25forwardUnsupportedContentEv@Qt_5 5.6.0~rc
 _ZNK8QWebPage25viewportAttributesForSizeERK5QSize@Qt_5 5.6.0~rc
 _ZNK8QWebPage27setActualVisibleContentRectERK5QRect@Qt_5 5.6.0~rc
 _ZNK8QWebPage4viewEv@Qt_5 5.6.0~rc
 _ZNK8QWebPage6actionENS_9WebActionE@Qt_5 5.6.0~rc
 _ZNK8QWebPage6handleEv@Qt_5 5.6.0~rc
 _ZNK8QWebPage7frameAtERK6QPoint@Qt_5 5.6.0~rc
 _ZNK8QWebPage7historyEv@Qt_5 5.6.0~rc
 _ZNK8QWebPage7paletteEv@Qt_5 5.6.0~rc
 _ZNK8QWebPage8settingsEv@Qt_5 5.6.0~rc
 _ZNK8QWebPage9mainFrameEv@Qt_5 5.6.0~rc
 _ZNK8QWebPage9undoStackEv@Qt_5 5.6.0~rc
 _ZNK8QWebView10isModifiedEv@Qt_5 5.6.0~rc
 _ZNK8QWebView10metaObjectEv@Qt_5 5.6.0~rc
 _ZNK8QWebView10pageActionEN8QWebPage9WebActionE@Qt_5 5.6.0~rc
 _ZNK8QWebView10zoomFactorEv@Qt_5 5.6.0~rc
 _ZNK8QWebView11renderHintsEv@Qt_5 5.6.0~rc
 _ZNK8QWebView12hasSelectionEv@Qt_5 5.6.0~rc
 _ZNK8QWebView12selectedHtmlEv@Qt_5 5.6.0~rc
 _ZNK8QWebView12selectedTextEv@Qt_5 5.6.0~rc
 _ZNK8QWebView16inputMethodQueryEN2Qt16InputMethodQueryE@Qt_5 5.6.0~rc
 _ZNK8QWebView18textSizeMultiplierEv@Qt_5 5.6.0~rc
 _ZNK8QWebView3urlEv@Qt_5 5.6.0~rc
 _ZNK8QWebView4iconEv@Qt_5 5.6.0~rc
 _ZNK8QWebView4pageEv@Qt_5 5.6.0~rc
 _ZNK8QWebView5printEP8QPrinter@Qt_5 5.6.0~rc
 _ZNK8QWebView5titleEv@Qt_5 5.6.0~rc
 _ZNK8QWebView7historyEv@Qt_5 5.6.0~rc
 _ZNK8QWebView8settingsEv@Qt_5 5.6.0~rc
 _ZNK8QWebView8sizeHintEv@Qt_5 5.6.0~rc
 _ZNK9QWebFrame10metaObjectEv@Qt_5 5.6.0~rc
 _ZNK9QWebFrame10zoomFactorEv@Qt_5 5.6.0~rc
 _ZNK9QWebFrame11childFramesEv@Qt_5 5.6.0~rc
 _ZNK9QWebFrame11parentFrameEv@Qt_5 5.6.0~rc
 _ZNK9QWebFrame11toPlainTextEv@Qt_5 5.6.0~rc
 _ZNK9QWebFrame12contentsSizeEv@Qt_5 5.6.0~rc
 _ZNK9QWebFrame12ownerElementEv@Qt_5 5.212.0~alpha2
 _ZNK9QWebFrame12requestedUrlEv@Qt_5 5.6.0~rc
 _ZNK9QWebFrame14hitTestContentERK6QPoint@Qt_5 5.6.0~rc
 _ZNK9QWebFrame14scrollBarValueEN2Qt11OrientationE@Qt_5 5.6.0~rc
 _ZNK9QWebFrame14scrollPositionEv@Qt_5 5.6.0~rc
 _ZNK9QWebFrame14securityOriginEv@Qt_5 5.6.0~rc
 _ZNK9QWebFrame15documentElementEv@Qt_5 5.6.0~rc
 _ZNK9QWebFrame15findAllElementsERK7QString@Qt_5 5.6.0~rc
 _ZNK9QWebFrame15scrollBarPolicyEN2Qt11OrientationE@Qt_5 5.6.0~rc
 _ZNK9QWebFrame16findFirstElementERK7QString@Qt_5 5.6.0~rc
 _ZNK9QWebFrame16scrollBarMaximumEN2Qt11OrientationE@Qt_5 5.6.0~rc
 _ZNK9QWebFrame16scrollBarMinimumEN2Qt11OrientationE@Qt_5 5.6.0~rc
 _ZNK9QWebFrame17scrollBarGeometryEN2Qt11OrientationE@Qt_5 5.6.0~rc
 _ZNK9QWebFrame18textSizeMultiplierEv@Qt_5 5.6.0~rc
 _ZNK9QWebFrame3posEv@Qt_5 5.6.0~rc
 _ZNK9QWebFrame3urlEv@Qt_5 5.6.0~rc
 _ZNK9QWebFrame4iconEv@Qt_5 5.6.0~rc
 _ZNK9QWebFrame4pageEv@Qt_5 5.6.0~rc
 _ZNK9QWebFrame5printEP8QPrinter@Qt_5 5.6.0~rc
 _ZNK9QWebFrame5titleEv@Qt_5 5.6.0~rc
 _ZNK9QWebFrame6handleEv@Qt_5 5.6.0~rc
 _ZNK9QWebFrame6toHtmlEv@Qt_5 5.6.0~rc
 _ZNK9QWebFrame7baseUrlEv@Qt_5 5.6.0~rc
 _ZNK9QWebFrame8geometryEv@Qt_5 5.6.0~rc
 _ZNK9QWebFrame8hasFocusEv@Qt_5 5.6.0~rc
 _ZNK9QWebFrame8metaDataEv@Qt_5 5.6.0~rc
 _ZNK9QWebFrame9frameNameEv@Qt_5 5.6.0~rc
 _ZTI13QWebInspector@Qt_5 5.6.0~rc
 _ZTI16QGraphicsWebView@Qt_5 5.6.0~rc
 _ZTI8QWebPage@Qt_5 5.6.0~rc
 _ZTI8QWebView@Qt_5 5.6.0~rc
 _ZTI9QWebFrame@Qt_5 5.6.0~rc
 _ZTS13QWebInspector@Qt_5 5.6.0~rc
 _ZTS16QGraphicsWebView@Qt_5 5.6.0~rc
 _ZTS8QWebPage@Qt_5 5.6.0~rc
 _ZTS8QWebView@Qt_5 5.6.0~rc
 _ZTS9QWebFrame@Qt_5 5.6.0~rc
 _ZTV13QWebInspector@Qt_5 5.6.0~rc
 _ZTV16QGraphicsWebView@Qt_5 5.6.0~rc
 _ZTV8QWebPage@Qt_5 5.6.0~rc
 _ZTV8QWebView@Qt_5 5.6.0~rc
 _ZTV9QWebFrame@Qt_5 5.6.0~rc
 (c++)"non-virtual thunk to QGraphicsWebView::contextMenuEvent(QGraphicsSceneContextMenuEvent*)@Qt_5" 5.6.0~rc
 (c++)"non-virtual thunk to QGraphicsWebView::dragEnterEvent(QGraphicsSceneDragDropEvent*)@Qt_5" 5.6.0~rc
 (c++)"non-virtual thunk to QGraphicsWebView::dragLeaveEvent(QGraphicsSceneDragDropEvent*)@Qt_5" 5.6.0~rc
 (c++)"non-virtual thunk to QGraphicsWebView::dragMoveEvent(QGraphicsSceneDragDropEvent*)@Qt_5" 5.6.0~rc
 (c++)"non-virtual thunk to QGraphicsWebView::dropEvent(QGraphicsSceneDragDropEvent*)@Qt_5" 5.6.0~rc
 (c++)"non-virtual thunk to QGraphicsWebView::focusInEvent(QFocusEvent*)@Qt_5" 5.6.0~rc
 (c++)"non-virtual thunk to QGraphicsWebView::focusOutEvent(QFocusEvent*)@Qt_5" 5.6.0~rc
 (c++)"non-virtual thunk to QGraphicsWebView::hoverLeaveEvent(QGraphicsSceneHoverEvent*)@Qt_5" 5.6.0~rc
 (c++)"non-virtual thunk to QGraphicsWebView::hoverMoveEvent(QGraphicsSceneHoverEvent*)@Qt_5" 5.6.0~rc
 (c++)"non-virtual thunk to QGraphicsWebView::inputMethodEvent(QInputMethodEvent*)@Qt_5" 5.6.0~rc
 (c++)"non-virtual thunk to QGraphicsWebView::inputMethodQuery(Qt::InputMethodQuery) const@Qt_5" 5.6.0~rc
 (c++)"non-virtual thunk to QGraphicsWebView::itemChange(QGraphicsItem::GraphicsItemChange, QVariant const&)@Qt_5" 5.6.0~rc
 (c++)"non-virtual thunk to QGraphicsWebView::keyPressEvent(QKeyEvent*)@Qt_5" 5.6.0~rc
 (c++)"non-virtual thunk to QGraphicsWebView::keyReleaseEvent(QKeyEvent*)@Qt_5" 5.6.0~rc
 (c++)"non-virtual thunk to QGraphicsWebView::mouseDoubleClickEvent(QGraphicsSceneMouseEvent*)@Qt_5" 5.6.0~rc
 (c++)"non-virtual thunk to QGraphicsWebView::mouseMoveEvent(QGraphicsSceneMouseEvent*)@Qt_5" 5.6.0~rc
 (c++)"non-virtual thunk to QGraphicsWebView::mousePressEvent(QGraphicsSceneMouseEvent*)@Qt_5" 5.6.0~rc
 (c++)"non-virtual thunk to QGraphicsWebView::mouseReleaseEvent(QGraphicsSceneMouseEvent*)@Qt_5" 5.6.0~rc
 (c++)"non-virtual thunk to QGraphicsWebView::paint(QPainter*, QStyleOptionGraphicsItem const*, QWidget*)@Qt_5" 5.6.0~rc
 (c++)"non-virtual thunk to QGraphicsWebView::sceneEvent(QEvent*)@Qt_5" 5.6.0~rc
 (c++)"non-virtual thunk to QGraphicsWebView::setGeometry(QRectF const&)@Qt_5" 5.6.0~rc
 (c++)"non-virtual thunk to QGraphicsWebView::sizeHint(Qt::SizeHint, QSizeF const&) const@Qt_5" 5.6.0~rc
 (c++)"non-virtual thunk to QGraphicsWebView::updateGeometry()@Qt_5" 5.6.0~rc
 (c++)"non-virtual thunk to QGraphicsWebView::wheelEvent(QGraphicsSceneWheelEvent*)@Qt_5" 5.6.0~rc
 (c++)"non-virtual thunk to QGraphicsWebView::~QGraphicsWebView()@Qt_5" 5.6.0~rc
 (c++)"non-virtual thunk to QWebInspector::~QWebInspector()@Qt_5" 5.6.0~rc
 (c++)"non-virtual thunk to QWebView::~QWebView()@Qt_5" 5.6.0~rc
